Archive member included to satisfy reference by file (symbol)

libc.a(libc-start.o)          crt1.o (__libc_start_main)
libc.a(check_fds.o)           libc.a(libc-start.o) (__libc_check_standard_fds)
libc.a(libc-tls.o)            libc.a(libc-start.o) (__pthread_initialize_minimal)
libc.a(elf-init.o)            crt1.o (__libc_csu_init)
libc.a(errno.o)               libc.a(check_fds.o) (__libc_errno)
libc.a(assert.o)              libc.a(libc-start.o) (__assert_fail)
libc.a(dcgettext.o)           libc.a(assert.o) (__dcgettext)
libc.a(dcigettext.o)          libc.a(dcgettext.o) (__dcigettext)
libc.a(finddomain.o)          libc.a(dcigettext.o) (_nl_find_domain)
libc.a(loadmsgcat.o)          libc.a(dcigettext.o) (_nl_load_domain)
libc.a(localealias.o)         libc.a(finddomain.o) (_nl_expand_alias)
libc.a(l10nflist.o)           libc.a(finddomain.o) (_nl_make_l10nflist)
libc.a(explodename.o)         libc.a(finddomain.o) (_nl_explode_name)
libc.a(plural.o)              libc.a(loadmsgcat.o) (__gettext_free_exp)
libc.a(plural-exp.o)          libc.a(loadmsgcat.o) (__gettext_extract_plural)
libc.a(hash-string.o)         libc.a(dcigettext.o) (__hash_string)
libc.a(bsd-_setjmp.o)         libc.a(libc-start.o) (_setjmp)
libc.a(abort.o)               libc.a(assert.o) (abort)
libc.a(msort.o)               libc.a(localealias.o) (qsort)
libc.a(getenv.o)              libc.a(dcigettext.o) (getenv)
libc.a(exit.o)                libc.a(libc-start.o) (exit)
libc.a(cxa_atexit.o)          libc.a(libc-start.o) (__cxa_atexit)
libc.a(strtoul.o)             libc.a(plural-exp.o) (strtoul)
libc.a(strtoul_l.o)           libc.a(strtoul.o) (____strtoul_l_internal)
libc.a(grouping.o)            libc.a(strtoul_l.o) (__correctly_grouped_prefixmb)
libc.a(asprintf.o)            libc.a(assert.o) (__asprintf)
libc.a(fxprintf.o)            libc.a(assert.o) (__fxprintf)
libc.a(iofclose.o)            libc.a(localealias.o) (_IO_new_fclose)
libc.a(iofflush.o)            libc.a(assert.o) (_IO_fflush)
libc.a(iofopen.o)             libc.a(localealias.o) (_IO_new_fopen)
libc.a(ioputs.o)              hello.o (puts)
libc.a(vasprintf.o)           libc.a(asprintf.o) (_IO_vasprintf)
libc.a(fcloseall.o)           libc.a(abort.o) (__fcloseall)
libc.a(libc_fatal.o)          libc.a(libc-start.o) (__libc_fatal)
libc.a(iofgets_u.o)           libc.a(localealias.o) (fgets_unlocked)
libc.a(wfileops.o)            libc.a(iofopen.o) (_IO_wfile_jumps_maybe_mmap)
libc.a(fileops.o)             libc.a(wfileops.o) (_IO_file_close)
libc.a(genops.o)              libc.a(fcloseall.o) (_IO_cleanup)
libc.a(stdfiles.o)            libc.a(genops.o) (_IO_list_all)
libc.a(stdio.o)               libc.a(assert.o) (stderr)
libc.a(strops.o)              libc.a(vasprintf.o) (_IO_str_init_static_internal)
libc.a(malloc.o)              libc.a(dcigettext.o) (malloc)
libc.a(morecore.o)            libc.a(malloc.o) (__default_morecore)
libc.a(strchr.o)              libc.a(dcigettext.o) (strchr)
libc.a(strcmp.o)              libc.a(dcigettext.o) (strcmp)
libc.a(strcpy.o)              libc.a(assert.o) (strcpy)
libc.a(strdup.o)              libc.a(dcigettext.o) (__strdup)
libc.a(strlen.o)              libc.a(dcigettext.o) (strlen)
libc.a(strncmp.o)             libc.a(getenv.o) (strncmp)
libc.a(strstr.o)              libc.a(dcigettext.o) (strstr)
libc.a(memchr.o)              libc.a(strstr.o) (memchr)
libc.a(memcmp.o)              libc.a(malloc.o) (memcmp)
libc.a(memmove.o)             libc.a(wfileops.o) (memmove)
libc.a(memset.o)              libc.a(strops.o) (memset)
libc.a(mempcpy.o)             libc.a(dcigettext.o) (mempcpy)
libc.a(stpcpy.o)              libc.a(dcigettext.o) (stpcpy)
libc.a(strcasecmp_l.o)        libc.a(localealias.o) (__strcasecmp_l)
libc.a(memcpy.o)              libc.a(libc-tls.o) (memcpy)
libc.a(wordcopy.o)            libc.a(memmove.o) (_wordcopy_fwd_aligned)
libc.a(rawmemchr.o)           libc.a(dcigettext.o) (__rawmemchr)
libc.a(strchrnul.o)           libc.a(libc_fatal.o) (__strchrnul)
libc.a(argz-count.o)          libc.a(l10nflist.o) (__argz_count)
libc.a(argz-stringify.o)      libc.a(l10nflist.o) (__argz_stringify)
libc.a(strcmp-ssse3.o)        libc.a(strcmp.o) (__strcmp_ssse3)
libc.a(strcmp-sse2-unaligned.o)
                              libc.a(strcmp.o) (__strcmp_sse2_unaligned)
libc.a(memcmp-sse4.o)         libc.a(memcmp.o) (__memcmp_sse4_1)
libc.a(memmove-ssse3.o)       libc.a(memmove.o) (__memmove_ssse3)
libc.a(memmove-ssse3-back.o)  libc.a(memmove.o) (__memmove_ssse3_back)
libc.a(strcasecmp_l-ssse3.o)  libc.a(strcasecmp_l.o) (__strcasecmp_ssse3)
libc.a(strcpy-ssse3.o)        libc.a(strcpy.o) (__strcpy_ssse3)
libc.a(stpcpy-ssse3.o)        libc.a(stpcpy.o) (__stpcpy_ssse3)
libc.a(strcpy-sse2-unaligned.o)
                              libc.a(strcpy.o) (__strcpy_sse2_unaligned)
libc.a(stpcpy-sse2-unaligned.o)
                              libc.a(stpcpy.o) (__stpcpy_sse2_unaligned)
libc.a(strchr-sse2-no-bsf.o)  libc.a(strchr.o) (__strchr_sse2_no_bsf)
libc.a(memcmp-ssse3.o)        libc.a(memcmp.o) (__memcmp_ssse3)
libc.a(strstr-sse2-unaligned.o)
                              libc.a(strstr.o) (__strstr_sse2_unaligned)
libc.a(cacheinfo.o)           libc.a(memmove-ssse3-back.o) (__x86_data_cache_size)
libc.a(strcasecmp_l-nonascii.o)
                              libc.a(strcasecmp_l.o) (__strcasecmp_l_nonascii)
libc.a(wmempcpy.o)            libc.a(wfileops.o) (__wmempcpy)
libc.a(wcsmbsload.o)          libc.a(fileops.o) (__wcsmbs_named_conv)
libc.a(_exit.o)               libc.a(abort.o) (_exit)
libc.a(sysconf.o)             libc.a(msort.o) (__sysconf)
libc.a(sched_yield.o)         libc.a(genops.o) (__sched_yield)
libc.a(get_child_max.o)       libc.a(sysconf.o) (__get_child_max)
libc.a(environ.o)             libc.a(libc-start.o) (__environ)
libc.a(exit-thread.o)         libc.a(libc-start.o) (__exit_thread)
libc.a(xstat.o)               libc.a(sysconf.o) (__xstat64)
libc.a(fxstat.o)              libc.a(check_fds.o) (__fxstat64)
libc.a(open.o)                libc.a(libc-start.o) (__open_nocancel)
libc.a(read.o)                libc.a(libc-start.o) (__read_nocancel)
libc.a(write.o)               libc.a(assert.o) (__libc_write)
libc.a(fcntl.o)               libc.a(check_fds.o) (__libc_fcntl)
libc.a(close.o)               libc.a(fileops.o) (__close_nocancel)
libc.a(getcwd.o)              libc.a(dcigettext.o) (__getcwd)
libc.a(getrlimit.o)           libc.a(sysconf.o) (__getrlimit)
libc.a(sbrk.o)                libc.a(libc-tls.o) (__sbrk)
libc.a(getpagesize.o)         libc.a(fileops.o) (__getpagesize)
libc.a(getdtsz.o)             libc.a(sysconf.o) (__getdtablesize)
libc.a(mmap.o)                libc.a(assert.o) (__mmap)
libc.a(munmap.o)              libc.a(assert.o) (__munmap)
libc.a(mprotect.o)            libc.a(malloc.o) (__mprotect)
libc.a(madvise.o)             libc.a(malloc.o) (__madvise)
libc.a(tsearch.o)             libc.a(dcigettext.o) (__tsearch)
libc.a(getsysstats.o)         libc.a(malloc.o) (__get_nprocs)
libc.a(getclktck.o)           libc.a(sysconf.o) (__getclktck)
libc.a(init-misc.o)           libc.a(assert.o) (__progname)
libc.a(llseek.o)              libc.a(fileops.o) (__lseek64)
libc.a(mremap.o)              libc.a(fileops.o) (__mremap)
libc.a(alloca_cutoff.o)       libc.a(getsysstats.o) (__libc_alloca_cutoff)
libc.a(libc-lowlevellock.o)   libc.a(dcigettext.o) (__lll_lock_wait_private)
libc.a(libc-cancellation.o)   libc.a(open.o) (__libc_enable_asynccancel)
libc.a(register-atfork.o)     libc.a(malloc.o) (__linkin_atfork)
libc.a(libc_multiple_threads.o)
                              libc.a(dcigettext.o) (__libc_multiple_threads)
libc.a(chk_fail.o)            libc.a(memmove-ssse3.o) (__chk_fail)
libc.a(fortify_fail.o)        libc.a(chk_fail.o) (__fortify_fail)
libc.a(backtrace.o)           libc.a(libc_fatal.o) (__backtrace)
libc.a(backtracesymsfd.o)     libc.a(libc_fatal.o) (__backtrace_symbols_fd)
libc.a(dl-support.o)          libc.a(libc-start.o) (_dl_aux_init)
libc.a(dl-addr.o)             libc.a(backtracesymsfd.o) (_dl_addr)
libc.a(enbl-secure.o)         libc.a(dl-support.o) (__libc_enable_secure_decided)
libc.a(dl-sysdep.o)           libc.a(libc-start.o) (_dl_discover_osversion)
libc.a(init-first.o)          libc.a(libc-start.o) (__libc_init_first)
libc.a(sysdep.o)              libc.a(sched_yield.o) (__syscall_error)
libc.a(init-arch.o)           libc.a(strchr.o) (__init_cpu_features)
libc.a(gconv_open.o)          libc.a(dcigettext.o) (__gconv_open)
libc.a(gconv.o)               libc.a(dcigettext.o) (__gconv)
libc.a(gconv_close.o)         libc.a(loadmsgcat.o) (__gconv_close)
libc.a(gconv_db.o)            libc.a(iofclose.o) (__gconv_release_step)
libc.a(gconv_conf.o)          libc.a(gconv_db.o) (__gconv_read_conf)
libc.a(gconv_builtin.o)       libc.a(gconv_db.o) (__gconv_get_builtin_trans)
libc.a(gconv_simple.o)        libc.a(wcsmbsload.o) (__gconv_btwoc_ascii)
libc.a(gconv_trans.o)         libc.a(gconv_open.o) (__gconv_transliterate)
libc.a(gconv_cache.o)         libc.a(gconv_conf.o) (__gconv_load_cache)
libc.a(gconv_dl.o)            libc.a(gconv_db.o) (__gconv_find_shlib)
libc.a(catnames.o)            libc.a(dcigettext.o) (_nl_category_name_idxs)
libc.a(setlocale.o)           libc.a(dcigettext.o) (__libc_setlocale_lock)
libc.a(findlocale.o)          libc.a(setlocale.o) (_nl_find_locale)
libc.a(loadlocale.o)          libc.a(findlocale.o) (_nl_load_locale)
libc.a(loadarchive.o)         libc.a(findlocale.o) (_nl_load_locale_from_archive)
libc.a(C-ctype.o)             libc.a(wcsmbsload.o) (_nl_C_LC_CTYPE)
libc.a(SYS_libc.o)            libc.a(assert.o) (_libc_intl_domainname)
libc.a(C_name.o)              libc.a(C-ctype.o) (_nl_C_codeset)
libc.a(xlocale.o)             libc.a(dcigettext.o) (_nl_C_locobj)
libc.a(global-locale.o)       libc.a(strtoul.o) (__libc_tsd_LOCALE)
libc.a(lc-ctype.o)            libc.a(dcigettext.o) (_nl_current_LC_CTYPE)
libc.a(C-messages.o)          libc.a(xlocale.o) (_nl_C_LC_MESSAGES)
libc.a(C-monetary.o)          libc.a(xlocale.o) (_nl_C_LC_MONETARY)
libc.a(C-numeric.o)           libc.a(xlocale.o) (_nl_C_LC_NUMERIC)
libc.a(C-paper.o)             libc.a(xlocale.o) (_nl_C_LC_PAPER)
libc.a(C-name.o)              libc.a(xlocale.o) (_nl_C_LC_NAME)
libc.a(C-address.o)           libc.a(xlocale.o) (_nl_C_LC_ADDRESS)
libc.a(C-telephone.o)         libc.a(xlocale.o) (_nl_C_LC_TELEPHONE)
libc.a(C-measurement.o)       libc.a(xlocale.o) (_nl_C_LC_MEASUREMENT)
libc.a(C-identification.o)    libc.a(xlocale.o) (_nl_C_LC_IDENTIFICATION)
libc.a(C-collate.o)           libc.a(xlocale.o) (_nl_C_LC_COLLATE)
libc.a(localename.o)          libc.a(dcigettext.o) (__current_locale_name)
libc.a(ctype-info.o)          libc.a(localealias.o) (__libc_tsd_CTYPE_B)
libc.a(setfpucw.o)            libc.a(init-first.o) (__setfpucw)
libc.a(fpu_control.o)         libc.a(init-first.o) (__fpu_control)
libc.a(setjmp.o)              libc.a(bsd-_setjmp.o) (__sigsetjmp)
libc.a(sigjmp.o)              libc.a(setjmp.o) (__sigjmp_save)
libc.a(raise.o)               libc.a(abort.o) (raise)
libc.a(sigaction.o)           libc.a(abort.o) (__sigaction)
libc.a(sigprocmask.o)         libc.a(abort.o) (__sigprocmask)
libc.a(qsort.o)               libc.a(msort.o) (_quicksort)
libc.a(setenv.o)              libc.a(dl-support.o) (__unsetenv)
libc.a(secure-getenv.o)       libc.a(libc_fatal.o) (__libc_secure_getenv)
libc.a(strtol.o)              libc.a(malloc.o) (strtol)
libc.a(strtol_l.o)            libc.a(strtol.o) (____strtol_l_internal)
libc.a(_itoa.o)               libc.a(malloc.o) (_itoa_word)
libc.a(itoa-digits.o)         libc.a(_itoa.o) (_itoa_lower_digits)
libc.a(itoa-udigits.o)        libc.a(_itoa.o) (_itoa_upper_digits)
libc.a(vfprintf.o)            libc.a(fxprintf.o) (_IO_vfprintf)
libc.a(printf_fp.o)           libc.a(vfprintf.o) (__printf_fp)
libc.a(reg-printf.o)          libc.a(vfprintf.o) (__printf_function_table)
libc.a(printf_fphex.o)        libc.a(vfprintf.o) (__printf_fphex)
libc.a(reg-modifier.o)        libc.a(vfprintf.o) (__printf_modifier_table)
libc.a(reg-type.o)            libc.a(vfprintf.o) (__printf_va_arg_table)
libc.a(fprintf.o)             libc.a(malloc.o) (fprintf)
libc.a(sscanf.o)              libc.a(getsysstats.o) (sscanf)
libc.a(funlockfile.o)         libc.a(vfprintf.o) (_IO_funlockfile)
libc.a(vfwprintf.o)           libc.a(fxprintf.o) (__vfwprintf)
libc.a(printf-parsemb.o)      libc.a(vfprintf.o) (__parse_one_specmb)
libc.a(printf-parsewc.o)      libc.a(vfwprintf.o) (__parse_one_specwc)
libc.a(filedoalloc.o)         libc.a(fileops.o) (_IO_file_doallocate)
libc.a(iofputs.o)             libc.a(malloc.o) (_IO_fputs)
libc.a(iofwrite.o)            libc.a(malloc.o) (fwrite)
libc.a(iogetdelim.o)          libc.a(gconv_conf.o) (_IO_getdelim)
libc.a(iogetline.o)           libc.a(iofgets_u.o) (_IO_getline)
libc.a(iopadn.o)              libc.a(vfprintf.o) (_IO_padn)
libc.a(iovsscanf.o)           libc.a(sscanf.o) (_IO_vsscanf)
libc.a(iofwide.o)             libc.a(vfwprintf.o) (_IO_fwide)
libc.a(wfiledoalloc.o)        libc.a(wfileops.o) (_IO_wfile_doallocate)
libc.a(iowpadn.o)             libc.a(printf_fp.o) (_IO_wpadn)
libc.a(wgenops.o)             libc.a(wfileops.o) (_IO_switch_to_main_wget_area)
libc.a(strndup.o)             libc.a(findlocale.o) (__strndup)
libc.a(_strerror.o)           libc.a(vfprintf.o) (__strerror_r)
libc.a(strnlen.o)             libc.a(argz-stringify.o) (__strnlen)
libc.a(strrchr.o)             libc.a(init-misc.o) (strrchr)
libc.a(argz-ctsep.o)          libc.a(setlocale.o) (__argz_create_sep)
libc.a(argz-addsep.o)         libc.a(setlocale.o) (__argz_add_sep)
libc.a(wmemcpy.o)             libc.a(printf_fp.o) (__wmemcpy)
libc.a(wmemset.o)             libc.a(printf_fp.o) (wmemset)
libc.a(wcslen.o)              libc.a(vfwprintf.o) (__wcslen)
libc.a(wmemmove.o)            libc.a(printf_fp.o) (__wmemmove)
libc.a(btowc.o)               libc.a(vfwprintf.o) (__btowc)
libc.a(wcrtomb.o)             libc.a(vfprintf.o) (__wcrtomb)
libc.a(mbsrtowcs.o)           libc.a(vfwprintf.o) (__mbsrtowcs)
libc.a(wcsrtombs.o)           libc.a(vfprintf.o) (__wcsrtombs)
libc.a(wcsnlen.o)             libc.a(vfwprintf.o) (__wcsnlen)
libc.a(wcschrnul.o)           libc.a(vfwprintf.o) (__wcschrnul)
libc.a(mbsrtowcs_l.o)         libc.a(mbsrtowcs.o) (__mbsrtowcs_l)
libc.a(time.o)                libc.a(getsysstats.o) (time)
libc.a(tzset.o)               libc.a(sysconf.o) (__tzname_max)
libc.a(tzfile.o)              libc.a(tzset.o) (__tzfile_read)
libc.a(opendir.o)             libc.a(getsysstats.o) (__opendir)
libc.a(closedir.o)            libc.a(getcwd.o) (__closedir)
libc.a(readdir.o)             libc.a(getcwd.o) (__readdir)
libc.a(rewinddir.o)           libc.a(getcwd.o) (rewinddir)
libc.a(getdents.o)            libc.a(readdir.o) (__getdents)
libc.a(fdopendir.o)           libc.a(getcwd.o) (__fdopendir)
libc.a(uname.o)               libc.a(dl-sysdep.o) (__uname)
libc.a(fork.o)                libc.a(register-atfork.o) (__fork_handlers)
libc.a(getuid.o)              libc.a(enbl-secure.o) (__getuid)
libc.a(geteuid.o)             libc.a(enbl-secure.o) (__geteuid)
libc.a(getgid.o)              libc.a(enbl-secure.o) (__getgid)
libc.a(getegid.o)             libc.a(enbl-secure.o) (__getegid)
libc.a(lxstat.o)              libc.a(getcwd.o) (__lxstat64)
libc.a(fxstatat.o)            libc.a(getcwd.o) (__fxstatat64)
libc.a(openat.o)              libc.a(opendir.o) (__openat_nocancel)
libc.a(access.o)              libc.a(dl-support.o) (__access)
libc.a(isatty.o)              libc.a(filedoalloc.o) (__isatty)
libc.a(tcgetattr.o)           libc.a(isatty.o) (__tcgetattr)
libc.a(brk.o)                 libc.a(sbrk.o) (__brk)
libc.a(writev.o)              libc.a(backtracesymsfd.o) (__writev)
libc.a(wctrans.o)             libc.a(vfprintf.o) (__wctrans)
libc.a(towctrans.o)           libc.a(vfprintf.o) (__towctrans)
libc.a(readonly-area.o)       libc.a(vfprintf.o) (__readonly_area)
libc.a(dl-load.o)             libc.a(dl-support.o) (_dl_init_paths)
libc.a(dl-lookup.o)           libc.a(dl-support.o) (_dl_setup_hash)
libc.a(dl-object.o)           libc.a(dl-support.o) (_dl_add_to_namespace_list)
libc.a(dl-reloc.o)            libc.a(dl-support.o) (_dl_nothread_init_static_tls)
libc.a(dl-hwcaps.o)           libc.a(dl-load.o) (_dl_important_hwcaps)
libc.a(dl-error.o)            libc.a(dl-load.o) (_dl_signal_error)
libc.a(dl-debug.o)            libc.a(dl-load.o) (_dl_debug_state)
libc.a(dl-misc.o)             libc.a(dl-support.o) (_dl_debug_printf)
libc.a(dl-tls.o)              libc.a(dl-load.o) (_dl_next_tls_modid)
libc.a(dl-origin.o)           libc.a(dl-support.o) (_dl_get_origin)
libc.a(dl-scope.o)            libc.a(dl-lookup.o) (_dl_scope_free)
libc.a(dl-execstack.o)        libc.a(dl-support.o) (_dl_make_stack_executable)
libc.a(dl-open.o)             libc.a(dl-addr.o) (_dl_find_dso_for_object)
libc.a(dl-close.o)            libc.a(dl-open.o) (_dl_close_worker)
libc.a(dl-trampoline.o)       libc.a(dl-reloc.o) (_dl_runtime_resolve)
libc.a(dl-cache.o)            libc.a(dl-load.o) (_dl_load_cache_lookup)
libc.a(dl-profstub.o)         libc.a(gconv.o) (_dl_mcount_wrapper_check)
libc.a(dl-libc.o)             libc.a(gconv_trans.o) (__libc_dlclose)
libc.a(dl-tsd.o)              libc.a(dl-error.o) (_dl_error_catch_tsd)
libc.a(tlsdesc.o)             libc.a(dl-close.o) (_dl_unmap)
libc.a(dl-tlsdesc.o)          libc.a(dl-reloc.o) (_dl_tlsdesc_return)
libc.a(C-time.o)              libc.a(xlocale.o) (_nl_C_LC_TIME)
libc.a(lc-monetary.o)         libc.a(printf_fp.o) (_nl_current_LC_MONETARY)
libc.a(lc-numeric.o)          libc.a(vfprintf.o) (_nl_current_LC_NUMERIC)
libc.a(s_isinf.o)             libc.a(printf_fp.o) (__isinf)
libc.a(s_isnan.o)             libc.a(printf_fp.o) (__isnan)
libc.a(s_isinfl.o)            libc.a(printf_fp.o) (__isinfl)
libc.a(s_isnanl.o)            libc.a(printf_fp.o) (__isnanl)
libc.a(__longjmp.o)           libc.a(dl-error.o) (__longjmp)
libc.a(cmp.o)                 libc.a(printf_fp.o) (__mpn_cmp)
libc.a(divrem.o)              libc.a(printf_fp.o) (__mpn_divrem)
libc.a(lshift.o)              libc.a(printf_fp.o) (__mpn_lshift)
libc.a(rshift.o)              libc.a(printf_fp.o) (__mpn_rshift)
libc.a(mul.o)                 libc.a(printf_fp.o) (__mpn_mul)
libc.a(mul_1.o)               libc.a(printf_fp.o) (__mpn_mul_1)
libc.a(mul_n.o)               libc.a(mul.o) (__mpn_impn_mul_n)
libc.a(sub_n.o)               libc.a(divrem.o) (__mpn_sub_n)
libc.a(submul_1.o)            libc.a(divrem.o) (__mpn_submul_1)
libc.a(dbl2mpn.o)             libc.a(printf_fp.o) (__mpn_extract_double)
libc.a(ldbl2mpn.o)            libc.a(printf_fp.o) (__mpn_extract_long_double)
libc.a(fpioconst.o)           libc.a(printf_fp.o) (_fpioconst_pow10)
libc.a(itowa-digits.o)        libc.a(printf_fphex.o) (_itowa_upper_digits)
libc.a(vfscanf.o)             libc.a(iovsscanf.o) (_IO_vfscanf)
libc.a(errlist.o)             libc.a(_strerror.o) (_sys_errlist_internal)
libc.a(fileno.o)              libc.a(tzfile.o) (fileno)
libc.a(fseek.o)               libc.a(tzfile.o) (fseek)
libc.a(ftello.o)              libc.a(tzfile.o) (ftello)
libc.a(iofread_u.o)           libc.a(tzfile.o) (fread_unlocked)
libc.a(sdlerror.o)            libc.a(dl-libc.o) (__libc_register_dlfcn_hook)
libc.a(sdladdr.o)             libc.a(sdlerror.o) (__dladdr)
libc.a(sdladdr1.o)            libc.a(sdlerror.o) (__dladdr1)
libc.a(sdlinfo.o)             libc.a(sdlerror.o) (__dlinfo)
libc.a(sdlmopen.o)            libc.a(sdlerror.o) (__dlmopen)
libc.a(strerror.o)            libc.a(sdlerror.o) (strerror)
libc.a(strsep.o)              libc.a(dl-load.o) (__strsep_g)
libc.a(mbrlen.o)              libc.a(vfscanf.o) (__mbrlen)
libc.a(mbrtowc.o)             libc.a(vfscanf.o) (__mbrtowc)
libc.a(offtime.o)             libc.a(tzset.o) (__offtime)
libc.a(localtime.o)           libc.a(tzset.o) (_tmbuf)
libc.a(mktime.o)              libc.a(tzset.o) (__mon_yday)
libc.a(getpid.o)              libc.a(dl-misc.o) (__getpid)
libc.a(dl-deps.o)             libc.a(dl-open.o) (_dl_map_object_deps)
libc.a(dl-runtime.o)          libc.a(dl-trampoline.o) (_dl_fixup)
libc.a(dl-init.o)             libc.a(dl-open.o) (_dl_init)
libc.a(dl-fini.o)             libc.a(dl-close.o) (_dl_sort_fini)
libc.a(dl-version.o)          libc.a(dl-open.o) (_dl_check_map_versions)
libc.a(dl-profile.o)          libc.a(dl-profstub.o) (_dl_mcount)
libc.a(add_n.o)               libc.a(divrem.o) (__mpn_add_n)
libc.a(addmul_1.o)            libc.a(mul.o) (__mpn_addmul_1)
libc.a(strtof.o)              libc.a(vfscanf.o) (__strtof_internal)
libc.a(strtod.o)              libc.a(vfscanf.o) (__strtod_internal)
libc.a(strtold.o)             libc.a(vfscanf.o) (__strtold_internal)
libc.a(strtof_l.o)            libc.a(strtof.o) (____strtof_l_internal)
libc.a(strtod_l.o)            libc.a(strtod.o) (____strtod_l_internal)
libc.a(strtold_l.o)           libc.a(strtold.o) (____strtold_l_internal)
libc.a(tens_in_limb.o)        libc.a(strtof_l.o) (_tens_in_limb)
libc.a(ioseekoff.o)           libc.a(fseek.o) (_IO_seekoff_unlocked)
libc.a(sdlopen.o)             libc.a(sdlerror.o) (__dlopen)
libc.a(sdlclose.o)            libc.a(sdlerror.o) (__dlclose)
libc.a(sdlsym.o)              libc.a(sdlerror.o) (__dlsym)
libc.a(sdlvsym.o)             libc.a(sdlerror.o) (__dlvsym)
libc.a(strpbrk.o)             libc.a(strsep.o) (strpbrk)
libc.a(strncase_l.o)          libc.a(strtof_l.o) (__strncasecmp_l)
libc.a(strncase_l-ssse3.o)    libc.a(strncase_l.o) (__strncasecmp_ssse3)
libc.a(strncase_l-nonascii.o)
                              libc.a(strncase_l.o) (__strncasecmp_l_nonascii)
libc.a(profil.o)              libc.a(dl-profile.o) (__profil)
libc.a(prof-freq.o)           libc.a(dl-profile.o) (__profile_frequency)
libc.a(dl-sym.o)              libc.a(sdlvsym.o) (_dl_vsym)
libc.a(mpn2flt.o)             libc.a(strtof_l.o) (__mpn_construct_float)
libc.a(mpn2dbl.o)             libc.a(strtod_l.o) (__mpn_construct_double)
libc.a(mpn2ldbl.o)            libc.a(strtold_l.o) (__mpn_construct_long_double)
libc.a(setitimer.o)           libc.a(profil.o) (__setitimer)
libgcc_eh.a(unwind-dw2.o)     libc.a(backtrace.o) (_Unwind_GetCFA)
libgcc_eh.a(unwind-dw2-fde-dip.o)
                              libgcc_eh.a(unwind-dw2.o) (_Unwind_Find_FDE)
libgcc_eh.a(unwind-c.o)       libc.a(iofclose.o) (__gcc_personality_v0)
libc.a(dl-iteratephdr.o)      libgcc_eh.a(unwind-dw2-fde-dip.o) (dl_iterate_phdr)

Allocating common symbols
Common symbol       size              file

__libc_argc         0x4               libc.a(init-first.o)
_dl_profile_output  0x8               libc.a(dl-support.o)
__printf_modifier_table
                    0x8               libc.a(reg-modifier.o)
_nl_domain_bindings
                    0x8               libc.a(dcigettext.o)
__gconv_path_envvar
                    0x8               libc.a(gconv_conf.o)
__gconv_modules_db  0x8               libc.a(gconv_db.o)
_dl_platformlen     0x8               libc.a(dl-support.o)
_dl_tls_static_used
                    0x8               libc.a(libc-tls.o)
_dl_debug_mask      0x4               libc.a(dl-support.o)
_nl_msg_cat_cntr    0x4               libc.a(loadmsgcat.o)
_dl_wait_lookup_done
                    0x8               libc.a(dl-support.o)
_dl_profile         0x8               libc.a(dl-support.o)
_dl_cpuclock_offset
                    0x8               libc.a(dl-support.o)
_dl_tls_static_align
                    0x8               libc.a(libc-tls.o)
_dl_tls_max_dtv_idx
                    0x8               libc.a(libc-tls.o)
_dl_static_dtv      0x400             libc.a(libc-tls.o)
_dl_bind_not        0x4               libc.a(dl-support.o)
_dl_auxv            0x8               libc.a(dl-support.o)
__gconv_max_path_elem_len
                    0x8               libc.a(gconv_conf.o)
_dl_platform        0x8               libc.a(dl-support.o)
__libc_enable_secure_decided
                    0x4               libc.a(enbl-secure.o)
__fork_generation_pointer
                    0x8               libc.a(fork.o)
_dl_lazy            0x4               libc.a(dl-support.o)
_dl_tls_dtv_slotinfo_list
                    0x8               libc.a(libc-tls.o)
__tzname_cur_max    0x8               libc.a(tzset.o)
_dl_sysinfo_map     0x8               libc.a(dl-support.o)
_dl_inhibit_cache   0x4               libc.a(dl-support.o)
_dl_tls_dtv_gaps    0x1               libc.a(libc-tls.o)
_dl_phdr            0x8               libc.a(dl-support.o)
_dl_scope_free_list
                    0x8               libc.a(dl-support.o)
_dl_origin_path     0x8               libc.a(dl-support.o)
__cpu_features      0x44              libc.a(init-arch.o)
_dl_tls_generation  0x8               libc.a(libc-tls.o)
__gconv_lock        0x4               libc.a(gconv_db.o)
_dl_clktck          0x4               libc.a(dl-support.o)
_dl_dynamic_weak    0x4               libc.a(dl-support.o)
_tmbuf              0x38              libc.a(localtime.o)
__fork_handlers     0x8               libc.a(fork.o)
__printf_function_table
                    0x8               libc.a(reg-printf.o)
_dl_sysinfo_dso     0x8               libc.a(dl-support.o)
__gconv_path_elem   0x8               libc.a(gconv_conf.o)
__libc_multiple_threads
                    0x4               libc.a(libc_multiple_threads.o)
__x86_prefetchw     0x4               libc.a(cacheinfo.o)
__new_exitfn_called
                    0x8               libc.a(cxa_atexit.o)
_dl_init_all_dirs   0x8               libc.a(dl-support.o)
_dl_tls_static_nelem
                    0x8               libc.a(libc-tls.o)
_nl_locale_file_list
                    0x68              libc.a(findlocale.o)
_dl_verbose         0x4               libc.a(dl-support.o)
_dl_phnum           0x8               libc.a(dl-support.o)
_dl_profile_map     0x8               libc.a(dl-support.o)
__use_tzfile        0x4               libc.a(tzfile.o)
_dl_initfirst       0x8               libc.a(dl-support.o)
__libc_argv         0x8               libc.a(init-first.o)
_dl_all_dirs        0x8               libc.a(dl-support.o)
__gconv_alias_db    0x8               libc.a(gconv_db.o)
_r_debug            0x28              libc.a(dl-debug.o)
_dl_osversion       0x4               libc.a(dl-support.o)
_dl_inhibit_rpath   0x8               libc.a(dl-support.o)

Discarded input sections

 .note.GNU-stack
                0x0000000000000000        0x0 crt1.o
 .gnu_debuglink
                0x0000000000000000        0xc crt1.o
 .note.GNU-stack
                0x0000000000000000        0x0 crti.o
 .gnu_debuglink
                0x0000000000000000        0xc crti.o
 .note.GNU-stack
                0x0000000000000000        0x0 crtbeginT.o
 .note.GNU-stack
                0x0000000000000000        0x0 hello.o
 .note.GNU-stack
                0x0000000000000000        0x0 libc.a(libc-start.o)
 .note.GNU-stack
                0x0000000000000000        0x0 libc.a(check_fds.o)
 .note.GNU-stack
                0x0000000000000000        0x0 libc.a(libc-tls.o)
 .note.GNU-stack
                0x0000000000000000        0x0 libc.a(elf-init.o)
 .note.GNU-stack
                0x0000000000000000        0x0 libc.a(errno.o)
 .note.GNU-stack
                0x0000000000000000        0x0 libc.a(assert.o)
 .note.GNU-stack
                0x0000000000000000        0x0 libc.a(dcgettext.o)
 .note.GNU-stack
                0x0000000000000000        0x0 libc.a(dcigettext.o)
 .note.GNU-stack
                0x0000000000000000        0x0 libc.a(finddomain.o)
 .note.GNU-stack
                0x0000000000000000        0x0 libc.a(loadmsgcat.o)
 .note.GNU-stack
                0x0000000000000000        0x0 libc.a(localealias.o)
 .note.GNU-stack
                0x0000000000000000        0x0 libc.a(l10nflist.o)
 .note.GNU-stack
                0x0000000000000000        0x0 libc.a(explodename.o)
 .note.GNU-stack
                0x0000000000000000        0x0 libc.a(plural.o)
 .note.GNU-stack
                0x0000000000000000        0x0 libc.a(plural-exp.o)
 .note.GNU-stack
                0x0000000000000000        0x0 libc.a(hash-string.o)
 .note.GNU-stack
                0x0000000000000000        0x0 libc.a(bsd-_setjmp.o)
 .note.GNU-stack
                0x0000000000000000        0x0 libc.a(abort.o)
 .note.GNU-stack
                0x0000000000000000        0x0 libc.a(msort.o)
 .note.GNU-stack
                0x0000000000000000        0x0 libc.a(getenv.o)
 .note.GNU-stack
                0x0000000000000000        0x0 libc.a(exit.o)
 .note.GNU-stack
                0x0000000000000000        0x0 libc.a(cxa_atexit.o)
 .note.GNU-stack
                0x0000000000000000        0x0 libc.a(strtoul.o)
 .note.GNU-stack
                0x0000000000000000        0x0 libc.a(strtoul_l.o)
 .note.GNU-stack
                0x0000000000000000        0x0 libc.a(grouping.o)
 .note.GNU-stack
                0x0000000000000000        0x0 libc.a(asprintf.o)
 .note.GNU-stack
                0x0000000000000000        0x0 libc.a(fxprintf.o)
 .note.GNU-stack
                0x0000000000000000        0x0 libc.a(iofclose.o)
 .note.GNU-stack
                0x0000000000000000        0x0 libc.a(iofflush.o)
 .note.GNU-stack
                0x0000000000000000        0x0 libc.a(iofopen.o)
 .note.GNU-stack
                0x0000000000000000        0x0 libc.a(ioputs.o)
 .note.GNU-stack
                0x0000000000000000        0x0 libc.a(vasprintf.o)
 .note.GNU-stack
                0x0000000000000000        0x0 libc.a(fcloseall.o)
 .note.GNU-stack
                0x0000000000000000        0x0 libc.a(libc_fatal.o)
 .note.GNU-stack
                0x0000000000000000        0x0 libc.a(iofgets_u.o)
 .note.GNU-stack
                0x0000000000000000        0x0 libc.a(wfileops.o)
 .note.GNU-stack
                0x0000000000000000        0x0 libc.a(fileops.o)
 .note.GNU-stack
                0x0000000000000000        0x0 libc.a(genops.o)
 .note.GNU-stack
                0x0000000000000000        0x0 libc.a(stdfiles.o)
 .note.GNU-stack
                0x0000000000000000        0x0 libc.a(stdio.o)
 .note.GNU-stack
                0x0000000000000000        0x0 libc.a(strops.o)
 .note.GNU-stack
                0x0000000000000000        0x0 libc.a(malloc.o)
 .note.GNU-stack
                0x0000000000000000        0x0 libc.a(morecore.o)
 .note.GNU-stack
                0x0000000000000000        0x0 libc.a(strchr.o)
 .note.GNU-stack
                0x0000000000000000        0x0 libc.a(strcmp.o)
 .note.GNU-stack
                0x0000000000000000        0x0 libc.a(strcpy.o)
 .note.GNU-stack
                0x0000000000000000        0x0 libc.a(strdup.o)
 .note.GNU-stack
                0x0000000000000000        0x0 libc.a(strlen.o)
 .note.GNU-stack
                0x0000000000000000        0x0 libc.a(strncmp.o)
 .note.GNU-stack
                0x0000000000000000        0x0 libc.a(strstr.o)
 .note.GNU-stack
                0x0000000000000000        0x0 libc.a(memchr.o)
 .note.GNU-stack
                0x0000000000000000        0x0 libc.a(memcmp.o)
 .note.GNU-stack
                0x0000000000000000        0x0 libc.a(memmove.o)
 .note.GNU-stack
                0x0000000000000000        0x0 libc.a(memset.o)
 .note.GNU-stack
                0x0000000000000000        0x0 libc.a(mempcpy.o)
 .note.GNU-stack
                0x0000000000000000        0x0 libc.a(stpcpy.o)
 .note.GNU-stack
                0x0000000000000000        0x0 libc.a(strcasecmp_l.o)
 .note.GNU-stack
                0x0000000000000000        0x0 libc.a(memcpy.o)
 .note.GNU-stack
                0x0000000000000000        0x0 libc.a(wordcopy.o)
 .note.GNU-stack
                0x0000000000000000        0x0 libc.a(rawmemchr.o)
 .note.GNU-stack
                0x0000000000000000        0x0 libc.a(strchrnul.o)
 .note.GNU-stack
                0x0000000000000000        0x0 libc.a(argz-count.o)
 .note.GNU-stack
                0x0000000000000000        0x0 libc.a(argz-stringify.o)
 .note.GNU-stack
                0x0000000000000000        0x0 libc.a(strcmp-ssse3.o)
 .note.GNU-stack
                0x0000000000000000        0x0 libc.a(strcmp-sse2-unaligned.o)
 .note.GNU-stack
                0x0000000000000000        0x0 libc.a(memcmp-sse4.o)
 .note.GNU-stack
                0x0000000000000000        0x0 libc.a(memmove-ssse3.o)
 .note.GNU-stack
                0x0000000000000000        0x0 libc.a(memmove-ssse3-back.o)
 .note.GNU-stack
                0x0000000000000000        0x0 libc.a(strcasecmp_l-ssse3.o)
 .note.GNU-stack
                0x0000000000000000        0x0 libc.a(strcpy-ssse3.o)
 .note.GNU-stack
                0x0000000000000000        0x0 libc.a(stpcpy-ssse3.o)
 .note.GNU-stack
                0x0000000000000000        0x0 libc.a(strcpy-sse2-unaligned.o)
 .note.GNU-stack
                0x0000000000000000        0x0 libc.a(stpcpy-sse2-unaligned.o)
 .note.GNU-stack
                0x0000000000000000        0x0 libc.a(strchr-sse2-no-bsf.o)
 .note.GNU-stack
                0x0000000000000000        0x0 libc.a(memcmp-ssse3.o)
 .note.GNU-stack
                0x0000000000000000        0x0 libc.a(strstr-sse2-unaligned.o)
 .note.GNU-stack
                0x0000000000000000        0x0 libc.a(cacheinfo.o)
 .note.GNU-stack
                0x0000000000000000        0x0 libc.a(strcasecmp_l-nonascii.o)
 .note.GNU-stack
                0x0000000000000000        0x0 libc.a(wmempcpy.o)
 .note.GNU-stack
                0x0000000000000000        0x0 libc.a(wcsmbsload.o)
 .note.GNU-stack
                0x0000000000000000        0x0 libc.a(_exit.o)
 .note.GNU-stack
                0x0000000000000000        0x0 libc.a(sysconf.o)
 .note.GNU-stack
                0x0000000000000000        0x0 libc.a(sched_yield.o)
 .note.GNU-stack
                0x0000000000000000        0x0 libc.a(get_child_max.o)
 .note.GNU-stack
                0x0000000000000000        0x0 libc.a(environ.o)
 .note.GNU-stack
                0x0000000000000000        0x0 libc.a(exit-thread.o)
 .note.GNU-stack
                0x0000000000000000        0x0 libc.a(xstat.o)
 .note.GNU-stack
                0x0000000000000000        0x0 libc.a(fxstat.o)
 .note.GNU-stack
                0x0000000000000000        0x0 libc.a(open.o)
 .note.GNU-stack
                0x0000000000000000        0x0 libc.a(read.o)
 .note.GNU-stack
                0x0000000000000000        0x0 libc.a(write.o)
 .note.GNU-stack
                0x0000000000000000        0x0 libc.a(fcntl.o)
 .note.GNU-stack
                0x0000000000000000        0x0 libc.a(close.o)
 .note.GNU-stack
                0x0000000000000000        0x0 libc.a(getcwd.o)
 .note.GNU-stack
                0x0000000000000000        0x0 libc.a(getrlimit.o)
 .note.GNU-stack
                0x0000000000000000        0x0 libc.a(sbrk.o)
 .note.GNU-stack
                0x0000000000000000        0x0 libc.a(getpagesize.o)
 .note.GNU-stack
                0x0000000000000000        0x0 libc.a(getdtsz.o)
 .note.GNU-stack
                0x0000000000000000        0x0 libc.a(mmap.o)
 .note.GNU-stack
                0x0000000000000000        0x0 libc.a(munmap.o)
 .note.GNU-stack
                0x0000000000000000        0x0 libc.a(mprotect.o)
 .note.GNU-stack
                0x0000000000000000        0x0 libc.a(madvise.o)
 .note.GNU-stack
                0x0000000000000000        0x0 libc.a(tsearch.o)
 .note.GNU-stack
                0x0000000000000000        0x0 libc.a(getsysstats.o)
 .note.GNU-stack
                0x0000000000000000        0x0 libc.a(getclktck.o)
 .note.GNU-stack
                0x0000000000000000        0x0 libc.a(init-misc.o)
 .note.GNU-stack
                0x0000000000000000        0x0 libc.a(llseek.o)
 .note.GNU-stack
                0x0000000000000000        0x0 libc.a(mremap.o)
 .note.GNU-stack
                0x0000000000000000        0x0 libc.a(alloca_cutoff.o)
 .note.GNU-stack
                0x0000000000000000        0x0 libc.a(libc-lowlevellock.o)
 .note.GNU-stack
                0x0000000000000000        0x0 libc.a(libc-cancellation.o)
 .note.GNU-stack
                0x0000000000000000        0x0 libc.a(register-atfork.o)
 .note.GNU-stack
                0x0000000000000000        0x0 libc.a(libc_multiple_threads.o)
 .note.GNU-stack
                0x0000000000000000        0x0 libc.a(chk_fail.o)
 .note.GNU-stack
                0x0000000000000000        0x0 libc.a(fortify_fail.o)
 .note.GNU-stack
                0x0000000000000000        0x0 libc.a(backtrace.o)
 .note.GNU-stack
                0x0000000000000000        0x0 libc.a(backtracesymsfd.o)
 .note.GNU-stack
                0x0000000000000000        0x0 libc.a(dl-support.o)
 .note.GNU-stack
                0x0000000000000000        0x0 libc.a(dl-addr.o)
 .note.GNU-stack
                0x0000000000000000        0x0 libc.a(enbl-secure.o)
 .note.GNU-stack
                0x0000000000000000        0x0 libc.a(dl-sysdep.o)
 .note.GNU-stack
                0x0000000000000000        0x0 libc.a(init-first.o)
 .note.GNU-stack
                0x0000000000000000        0x0 libc.a(sysdep.o)
 .note.GNU-stack
                0x0000000000000000        0x0 libc.a(init-arch.o)
 .note.GNU-stack
                0x0000000000000000        0x0 libc.a(gconv_open.o)
 .note.GNU-stack
                0x0000000000000000        0x0 libc.a(gconv.o)
 .note.GNU-stack
                0x0000000000000000        0x0 libc.a(gconv_close.o)
 .note.GNU-stack
                0x0000000000000000        0x0 libc.a(gconv_db.o)
 .note.GNU-stack
                0x0000000000000000        0x0 libc.a(gconv_conf.o)
 .note.GNU-stack
                0x0000000000000000        0x0 libc.a(gconv_builtin.o)
 .note.GNU-stack
                0x0000000000000000        0x0 libc.a(gconv_simple.o)
 .note.GNU-stack
                0x0000000000000000        0x0 libc.a(gconv_trans.o)
 .note.GNU-stack
                0x0000000000000000        0x0 libc.a(gconv_cache.o)
 .note.GNU-stack
                0x0000000000000000        0x0 libc.a(gconv_dl.o)
 .note.GNU-stack
                0x0000000000000000        0x0 libc.a(catnames.o)
 .note.GNU-stack
                0x0000000000000000        0x0 libc.a(setlocale.o)
 .note.GNU-stack
                0x0000000000000000        0x0 libc.a(findlocale.o)
 .note.GNU-stack
                0x0000000000000000        0x0 libc.a(loadlocale.o)
 .note.GNU-stack
                0x0000000000000000        0x0 libc.a(loadarchive.o)
 .note.GNU-stack
                0x0000000000000000        0x0 libc.a(C-ctype.o)
 .note.GNU-stack
                0x0000000000000000        0x0 libc.a(SYS_libc.o)
 .note.GNU-stack
                0x0000000000000000        0x0 libc.a(C_name.o)
 .note.GNU-stack
                0x0000000000000000        0x0 libc.a(xlocale.o)
 .note.GNU-stack
                0x0000000000000000        0x0 libc.a(global-locale.o)
 .note.GNU-stack
                0x0000000000000000        0x0 libc.a(lc-ctype.o)
 .note.GNU-stack
                0x0000000000000000        0x0 libc.a(C-messages.o)
 .note.GNU-stack
                0x0000000000000000        0x0 libc.a(C-monetary.o)
 .note.GNU-stack
                0x0000000000000000        0x0 libc.a(C-numeric.o)
 .note.GNU-stack
                0x0000000000000000        0x0 libc.a(C-paper.o)
 .note.GNU-stack
                0x0000000000000000        0x0 libc.a(C-name.o)
 .note.GNU-stack
                0x0000000000000000        0x0 libc.a(C-address.o)
 .note.GNU-stack
                0x0000000000000000        0x0 libc.a(C-telephone.o)
 .note.GNU-stack
                0x0000000000000000        0x0 libc.a(C-measurement.o)
 .note.GNU-stack
                0x0000000000000000        0x0 libc.a(C-identification.o)
 .note.GNU-stack
                0x0000000000000000        0x0 libc.a(C-collate.o)
 .note.GNU-stack
                0x0000000000000000        0x0 libc.a(localename.o)
 .note.GNU-stack
                0x0000000000000000        0x0 libc.a(ctype-info.o)
 .note.GNU-stack
                0x0000000000000000        0x0 libc.a(setfpucw.o)
 .note.GNU-stack
                0x0000000000000000        0x0 libc.a(fpu_control.o)
 .note.GNU-stack
                0x0000000000000000        0x0 libc.a(setjmp.o)
 .note.GNU-stack
                0x0000000000000000        0x0 libc.a(sigjmp.o)
 .note.GNU-stack
                0x0000000000000000        0x0 libc.a(raise.o)
 .note.GNU-stack
                0x0000000000000000        0x0 libc.a(sigaction.o)
 .note.GNU-stack
                0x0000000000000000        0x0 libc.a(sigprocmask.o)
 .note.GNU-stack
                0x0000000000000000        0x0 libc.a(qsort.o)
 .note.GNU-stack
                0x0000000000000000        0x0 libc.a(setenv.o)
 .note.GNU-stack
                0x0000000000000000        0x0 libc.a(secure-getenv.o)
 .note.GNU-stack
                0x0000000000000000        0x0 libc.a(strtol.o)
 .note.GNU-stack
                0x0000000000000000        0x0 libc.a(strtol_l.o)
 .note.GNU-stack
                0x0000000000000000        0x0 libc.a(_itoa.o)
 .note.GNU-stack
                0x0000000000000000        0x0 libc.a(itoa-digits.o)
 .note.GNU-stack
                0x0000000000000000        0x0 libc.a(itoa-udigits.o)
 .note.GNU-stack
                0x0000000000000000        0x0 libc.a(vfprintf.o)
 .note.GNU-stack
                0x0000000000000000        0x0 libc.a(printf_fp.o)
 .note.GNU-stack
                0x0000000000000000        0x0 libc.a(reg-printf.o)
 .note.GNU-stack
                0x0000000000000000        0x0 libc.a(printf_fphex.o)
 .note.GNU-stack
                0x0000000000000000        0x0 libc.a(reg-modifier.o)
 .note.GNU-stack
                0x0000000000000000        0x0 libc.a(reg-type.o)
 .note.GNU-stack
                0x0000000000000000        0x0 libc.a(fprintf.o)
 .note.GNU-stack
                0x0000000000000000        0x0 libc.a(sscanf.o)
 .note.GNU-stack
                0x0000000000000000        0x0 libc.a(funlockfile.o)
 .note.GNU-stack
                0x0000000000000000        0x0 libc.a(vfwprintf.o)
 .note.GNU-stack
                0x0000000000000000        0x0 libc.a(printf-parsemb.o)
 .note.GNU-stack
                0x0000000000000000        0x0 libc.a(printf-parsewc.o)
 .note.GNU-stack
                0x0000000000000000        0x0 libc.a(filedoalloc.o)
 .note.GNU-stack
                0x0000000000000000        0x0 libc.a(iofputs.o)
 .note.GNU-stack
                0x0000000000000000        0x0 libc.a(iofwrite.o)
 .note.GNU-stack
                0x0000000000000000        0x0 libc.a(iogetdelim.o)
 .note.GNU-stack
                0x0000000000000000        0x0 libc.a(iogetline.o)
 .note.GNU-stack
                0x0000000000000000        0x0 libc.a(iopadn.o)
 .note.GNU-stack
                0x0000000000000000        0x0 libc.a(iovsscanf.o)
 .note.GNU-stack
                0x0000000000000000        0x0 libc.a(iofwide.o)
 .note.GNU-stack
                0x0000000000000000        0x0 libc.a(wfiledoalloc.o)
 .note.GNU-stack
                0x0000000000000000        0x0 libc.a(iowpadn.o)
 .note.GNU-stack
                0x0000000000000000        0x0 libc.a(wgenops.o)
 .note.GNU-stack
                0x0000000000000000        0x0 libc.a(strndup.o)
 .note.GNU-stack
                0x0000000000000000        0x0 libc.a(_strerror.o)
 .note.GNU-stack
                0x0000000000000000        0x0 libc.a(strnlen.o)
 .note.GNU-stack
                0x0000000000000000        0x0 libc.a(strrchr.o)
 .note.GNU-stack
                0x0000000000000000        0x0 libc.a(argz-ctsep.o)
 .note.GNU-stack
                0x0000000000000000        0x0 libc.a(argz-addsep.o)
 .note.GNU-stack
                0x0000000000000000        0x0 libc.a(wmemcpy.o)
 .note.GNU-stack
                0x0000000000000000        0x0 libc.a(wmemset.o)
 .note.GNU-stack
                0x0000000000000000        0x0 libc.a(wcslen.o)
 .note.GNU-stack
                0x0000000000000000        0x0 libc.a(wmemmove.o)
 .note.GNU-stack
                0x0000000000000000        0x0 libc.a(btowc.o)
 .note.GNU-stack
                0x0000000000000000        0x0 libc.a(wcrtomb.o)
 .note.GNU-stack
                0x0000000000000000        0x0 libc.a(mbsrtowcs.o)
 .note.GNU-stack
                0x0000000000000000        0x0 libc.a(wcsrtombs.o)
 .note.GNU-stack
                0x0000000000000000        0x0 libc.a(wcsnlen.o)
 .note.GNU-stack
                0x0000000000000000        0x0 libc.a(wcschrnul.o)
 .note.GNU-stack
                0x0000000000000000        0x0 libc.a(mbsrtowcs_l.o)
 .note.GNU-stack
                0x0000000000000000        0x0 libc.a(time.o)
 .note.GNU-stack
                0x0000000000000000        0x0 libc.a(tzset.o)
 .note.GNU-stack
                0x0000000000000000        0x0 libc.a(tzfile.o)
 .note.GNU-stack
                0x0000000000000000        0x0 libc.a(opendir.o)
 .note.GNU-stack
                0x0000000000000000        0x0 libc.a(closedir.o)
 .note.GNU-stack
                0x0000000000000000        0x0 libc.a(readdir.o)
 .note.GNU-stack
                0x0000000000000000        0x0 libc.a(rewinddir.o)
 .note.GNU-stack
                0x0000000000000000        0x0 libc.a(getdents.o)
 .note.GNU-stack
                0x0000000000000000        0x0 libc.a(fdopendir.o)
 .note.GNU-stack
                0x0000000000000000        0x0 libc.a(uname.o)
 .note.GNU-stack
                0x0000000000000000        0x0 libc.a(fork.o)
 .note.GNU-stack
                0x0000000000000000        0x0 libc.a(getuid.o)
 .note.GNU-stack
                0x0000000000000000        0x0 libc.a(geteuid.o)
 .note.GNU-stack
                0x0000000000000000        0x0 libc.a(getgid.o)
 .note.GNU-stack
                0x0000000000000000        0x0 libc.a(getegid.o)
 .note.GNU-stack
                0x0000000000000000        0x0 libc.a(lxstat.o)
 .note.GNU-stack
                0x0000000000000000        0x0 libc.a(fxstatat.o)
 .note.GNU-stack
                0x0000000000000000        0x0 libc.a(openat.o)
 .note.GNU-stack
                0x0000000000000000        0x0 libc.a(access.o)
 .note.GNU-stack
                0x0000000000000000        0x0 libc.a(isatty.o)
 .note.GNU-stack
                0x0000000000000000        0x0 libc.a(tcgetattr.o)
 .note.GNU-stack
                0x0000000000000000        0x0 libc.a(brk.o)
 .note.GNU-stack
                0x0000000000000000        0x0 libc.a(writev.o)
 .note.GNU-stack
                0x0000000000000000        0x0 libc.a(wctrans.o)
 .note.GNU-stack
                0x0000000000000000        0x0 libc.a(towctrans.o)
 .note.GNU-stack
                0x0000000000000000        0x0 libc.a(readonly-area.o)
 .note.GNU-stack
                0x0000000000000000        0x0 libc.a(dl-load.o)
 .note.GNU-stack
                0x0000000000000000        0x0 libc.a(dl-lookup.o)
 .note.GNU-stack
                0x0000000000000000        0x0 libc.a(dl-object.o)
 .note.GNU-stack
                0x0000000000000000        0x0 libc.a(dl-reloc.o)
 .note.GNU-stack
                0x0000000000000000        0x0 libc.a(dl-hwcaps.o)
 .note.GNU-stack
                0x0000000000000000        0x0 libc.a(dl-error.o)
 .note.GNU-stack
                0x0000000000000000        0x0 libc.a(dl-debug.o)
 .note.GNU-stack
                0x0000000000000000        0x0 libc.a(dl-misc.o)
 .note.GNU-stack
                0x0000000000000000        0x0 libc.a(dl-tls.o)
 .note.GNU-stack
                0x0000000000000000        0x0 libc.a(dl-origin.o)
 .note.GNU-stack
                0x0000000000000000        0x0 libc.a(dl-scope.o)
 .note.GNU-stack
                0x0000000000000000        0x0 libc.a(dl-execstack.o)
 .note.GNU-stack
                0x0000000000000000        0x0 libc.a(dl-open.o)
 .note.GNU-stack
                0x0000000000000000        0x0 libc.a(dl-close.o)
 .note.GNU-stack
                0x0000000000000000        0x0 libc.a(dl-trampoline.o)
 .note.GNU-stack
                0x0000000000000000        0x0 libc.a(dl-cache.o)
 .note.GNU-stack
                0x0000000000000000        0x0 libc.a(dl-profstub.o)
 .note.GNU-stack
                0x0000000000000000        0x0 libc.a(dl-libc.o)
 .note.GNU-stack
                0x0000000000000000        0x0 libc.a(dl-tsd.o)
 .note.GNU-stack
                0x0000000000000000        0x0 libc.a(tlsdesc.o)
 .note.GNU-stack
                0x0000000000000000        0x0 libc.a(dl-tlsdesc.o)
 .note.GNU-stack
                0x0000000000000000        0x0 libc.a(C-time.o)
 .note.GNU-stack
                0x0000000000000000        0x0 libc.a(lc-monetary.o)
 .note.GNU-stack
                0x0000000000000000        0x0 libc.a(lc-numeric.o)
 .note.GNU-stack
                0x0000000000000000        0x0 libc.a(s_isinf.o)
 .note.GNU-stack
                0x0000000000000000        0x0 libc.a(s_isnan.o)
 .note.GNU-stack
                0x0000000000000000        0x0 libc.a(s_isinfl.o)
 .note.GNU-stack
                0x0000000000000000        0x0 libc.a(s_isnanl.o)
 .note.GNU-stack
                0x0000000000000000        0x0 libc.a(__longjmp.o)
 .note.GNU-stack
                0x0000000000000000        0x0 libc.a(cmp.o)
 .note.GNU-stack
                0x0000000000000000        0x0 libc.a(divrem.o)
 .note.GNU-stack
                0x0000000000000000        0x0 libc.a(lshift.o)
 .note.GNU-stack
                0x0000000000000000        0x0 libc.a(rshift.o)
 .note.GNU-stack
                0x0000000000000000        0x0 libc.a(mul.o)
 .note.GNU-stack
                0x0000000000000000        0x0 libc.a(mul_1.o)
 .note.GNU-stack
                0x0000000000000000        0x0 libc.a(mul_n.o)
 .note.GNU-stack
                0x0000000000000000        0x0 libc.a(sub_n.o)
 .note.GNU-stack
                0x0000000000000000        0x0 libc.a(submul_1.o)
 .note.GNU-stack
                0x0000000000000000        0x0 libc.a(dbl2mpn.o)
 .note.GNU-stack
                0x0000000000000000        0x0 libc.a(ldbl2mpn.o)
 .note.GNU-stack
                0x0000000000000000        0x0 libc.a(fpioconst.o)
 .note.GNU-stack
                0x0000000000000000        0x0 libc.a(itowa-digits.o)
 .note.GNU-stack
                0x0000000000000000        0x0 libc.a(vfscanf.o)
 .gnu.warning.sys_errlist
                0x0000000000000000        0x0 libc.a(errlist.o)
 .gnu.warning.sys_nerr
                0x0000000000000000        0x0 libc.a(errlist.o)
 .note.GNU-stack
                0x0000000000000000        0x0 libc.a(errlist.o)
 .note.GNU-stack
                0x0000000000000000        0x0 libc.a(fileno.o)
 .note.GNU-stack
                0x0000000000000000        0x0 libc.a(fseek.o)
 .note.GNU-stack
                0x0000000000000000        0x0 libc.a(ftello.o)
 .note.GNU-stack
                0x0000000000000000        0x0 libc.a(iofread_u.o)
 .note.GNU-stack
                0x0000000000000000        0x0 libc.a(sdlerror.o)
 .note.GNU-stack
                0x0000000000000000        0x0 libc.a(sdladdr.o)
 .note.GNU-stack
                0x0000000000000000        0x0 libc.a(sdladdr1.o)
 .note.GNU-stack
                0x0000000000000000        0x0 libc.a(sdlinfo.o)
 .note.GNU-stack
                0x0000000000000000        0x0 libc.a(sdlmopen.o)
 .note.GNU-stack
                0x0000000000000000        0x0 libc.a(strerror.o)
 .note.GNU-stack
                0x0000000000000000        0x0 libc.a(strsep.o)
 .note.GNU-stack
                0x0000000000000000        0x0 libc.a(mbrlen.o)
 .note.GNU-stack
                0x0000000000000000        0x0 libc.a(mbrtowc.o)
 .note.GNU-stack
                0x0000000000000000        0x0 libc.a(offtime.o)
 .note.GNU-stack
                0x0000000000000000        0x0 libc.a(localtime.o)
 .note.GNU-stack
                0x0000000000000000        0x0 libc.a(mktime.o)
 .note.GNU-stack
                0x0000000000000000        0x0 libc.a(getpid.o)
 .note.GNU-stack
                0x0000000000000000        0x0 libc.a(dl-deps.o)
 .note.GNU-stack
                0x0000000000000000        0x0 libc.a(dl-runtime.o)
 .note.GNU-stack
                0x0000000000000000        0x0 libc.a(dl-init.o)
 .note.GNU-stack
                0x0000000000000000        0x0 libc.a(dl-fini.o)
 .note.GNU-stack
                0x0000000000000000        0x0 libc.a(dl-version.o)
 .note.GNU-stack
                0x0000000000000000        0x0 libc.a(dl-profile.o)
 .note.GNU-stack
                0x0000000000000000        0x0 libc.a(add_n.o)
 .note.GNU-stack
                0x0000000000000000        0x0 libc.a(addmul_1.o)
 .note.GNU-stack
                0x0000000000000000        0x0 libc.a(strtof.o)
 .note.GNU-stack
                0x0000000000000000        0x0 libc.a(strtod.o)
 .note.GNU-stack
                0x0000000000000000        0x0 libc.a(strtold.o)
 .note.GNU-stack
                0x0000000000000000        0x0 libc.a(strtof_l.o)
 .note.GNU-stack
                0x0000000000000000        0x0 libc.a(strtod_l.o)
 .note.GNU-stack
                0x0000000000000000        0x0 libc.a(strtold_l.o)
 .note.GNU-stack
                0x0000000000000000        0x0 libc.a(tens_in_limb.o)
 .note.GNU-stack
                0x0000000000000000        0x0 libc.a(ioseekoff.o)
 .note.GNU-stack
                0x0000000000000000        0x0 libc.a(sdlopen.o)
 .note.GNU-stack
                0x0000000000000000        0x0 libc.a(sdlclose.o)
 .note.GNU-stack
                0x0000000000000000        0x0 libc.a(sdlsym.o)
 .note.GNU-stack
                0x0000000000000000        0x0 libc.a(sdlvsym.o)
 .note.GNU-stack
                0x0000000000000000        0x0 libc.a(strpbrk.o)
 .note.GNU-stack
                0x0000000000000000        0x0 libc.a(strncase_l.o)
 .note.GNU-stack
                0x0000000000000000        0x0 libc.a(strncase_l-ssse3.o)
 .note.GNU-stack
                0x0000000000000000        0x0 libc.a(strncase_l-nonascii.o)
 .note.GNU-stack
                0x0000000000000000        0x0 libc.a(profil.o)
 .note.GNU-stack
                0x0000000000000000        0x0 libc.a(prof-freq.o)
 .note.GNU-stack
                0x0000000000000000        0x0 libc.a(dl-sym.o)
 .note.GNU-stack
                0x0000000000000000        0x0 libc.a(mpn2flt.o)
 .note.GNU-stack
                0x0000000000000000        0x0 libc.a(mpn2dbl.o)
 .note.GNU-stack
                0x0000000000000000        0x0 libc.a(mpn2ldbl.o)
 .note.GNU-stack
                0x0000000000000000        0x0 libc.a(setitimer.o)
 .note.GNU-stack
                0x0000000000000000        0x0 libgcc_eh.a(unwind-dw2.o)
 .note.GNU-stack
                0x0000000000000000        0x0 libgcc_eh.a(unwind-dw2-fde-dip.o)
 .note.GNU-stack
                0x0000000000000000        0x0 libgcc_eh.a(unwind-c.o)
 .note.GNU-stack
                0x0000000000000000        0x0 libc.a(dl-iteratephdr.o)
 .note.GNU-stack
                0x0000000000000000        0x0 crtend.o
 .note.GNU-stack
                0x0000000000000000        0x0 crtn.o
 .gnu_debuglink
                0x0000000000000000        0xc crtn.o

Memory Configuration

Name             Origin             Length             Attributes
*default*        0x0000000000000000 0xffffffffffffffff

Linker script and memory map

LOAD crt1.o
LOAD crti.o
LOAD crtbeginT.o
LOAD hello.o
START GROUP
LOAD libgcc.a
LOAD libgcc_eh.a
LOAD libc.a
END GROUP
LOAD crtend.o
LOAD crtn.o
                0x0000000000400000                PROVIDE (__executable_start, 0x400000)
                0x0000000000400190                . = (0x400000 + SIZEOF_HEADERS)

.interp
 *(.interp)

.note.ABI-tag   0x0000000000400190       0x20
 .note.ABI-tag  0x0000000000400190       0x20 crt1.o

.note.gnu.build-id
                0x00000000004001b0       0x24
 *(.note.gnu.build-id)
 .note.gnu.build-id
                0x00000000004001b0       0x24 crt1.o

.hash
 *(.hash)

.gnu.hash
 *(.gnu.hash)

.dynsym
 *(.dynsym)

.dynstr
 *(.dynstr)

.gnu.version
 *(.gnu.version)

.gnu.version_d
 *(.gnu.version_d)

.gnu.version_r
 *(.gnu.version_r)

.rela.dyn       0x00000000004001d8        0x0
 *(.rela.init)
 *(.rela.text .rela.text.* .rela.gnu.linkonce.t.*)
 .rela.text     0x00000000004001d8        0x0 crt1.o
 .rela.text.unlikely
                0x00000000004001d8        0x0 crt1.o
 .rela.text.sse4.2
                0x00000000004001d8        0x0 crt1.o
 .rela.text.avx
                0x00000000004001d8        0x0 crt1.o
 .rela.text.sse4.1
                0x00000000004001d8        0x0 crt1.o
 .rela.text.ssse3
                0x00000000004001d8        0x0 crt1.o
 .rela.text.startup
                0x00000000004001d8        0x0 crt1.o
 *(.rela.fini)
 *(.rela.rodata .rela.rodata.* .rela.gnu.linkonce.r.*)
 .rela.rodata   0x00000000004001d8        0x0 crt1.o
 *(.rela.data .rela.data.* .rela.gnu.linkonce.d.*)
 .rela.data     0x00000000004001d8        0x0 crt1.o
 *(.rela.tdata .rela.tdata.* .rela.gnu.linkonce.td.*)
 *(.rela.tbss .rela.tbss.* .rela.gnu.linkonce.tb.*)
 *(.rela.ctors)
 *(.rela.dtors)
 *(.rela.got)
 .rela.got      0x00000000004001d8        0x0 crt1.o
 *(.rela.bss .rela.bss.* .rela.gnu.linkonce.b.*)
 *(.rela.ldata .rela.ldata.* .rela.gnu.linkonce.l.*)
 *(.rela.lbss .rela.lbss.* .rela.gnu.linkonce.lb.*)
 *(.rela.lrodata .rela.lrodata.* .rela.gnu.linkonce.lr.*)
 *(.rela.ifunc)
 .rela__libc_freeres_fn
                0x00000000004001d8        0x0 crt1.o
 .rela.eh_frame
                0x00000000004001d8        0x0 crt1.o
 .rela__libc_thread_freeres_fn
                0x00000000004001d8        0x0 crt1.o

.rela.plt       0x00000000004001d8       0xd8
 *(.rela.plt)
                0x00000000004001d8                PROVIDE (__rela_iplt_start, .)
 *(.rela.iplt)
 .rela.iplt     0x00000000004001d8       0xd8 crt1.o
                0x00000000004002b0                PROVIDE (__rela_iplt_end, .)

.init           0x00000000004002b0       0x1a
 *(SORT(.init))
 .init          0x00000000004002b0       0x15 crti.o
                0x00000000004002b0                _init
 .init          0x00000000004002c5        0x5 crtn.o

.plt            0x00000000004002d0       0x90
 *(.plt)
 *(.iplt)
 .iplt          0x00000000004002d0       0x90 crt1.o

.plt.bnd
 *(.plt.bnd)

.text           0x0000000000400360    0x91804
 *(.text.unlikely .text.*_unlikely .text.unlikely.*)
 .text.unlikely
                0x0000000000400360        0x0 crtbeginT.o
 .text.unlikely
                0x0000000000400360       0x71 libc.a(check_fds.o)
 .text.unlikely
                0x00000000004003d1       0xc5 libc.a(libc_fatal.o)
 .text.unlikely
                0x0000000000400496       0x1a libc.a(gconv_db.o)
 .text.unlikely
                0x00000000004004b0       0x72 libc.a(findlocale.o)
 .text.unlikely
                0x0000000000400522      0x348 libc.a(vfprintf.o)
 .text.unlikely
                0x000000000040086a      0x20a libc.a(printf_fp.o)
 .text.unlikely
                0x0000000000400a74      0x245 libc.a(vfwprintf.o)
 .text.unlikely
                0x0000000000400cb9        0x0 libgcc_eh.a(unwind-dw2.o)
 .text.unlikely
                0x0000000000400cb9        0x0 libgcc_eh.a(unwind-dw2-fde-dip.o)
 .text.unlikely
                0x0000000000400cb9        0x0 libgcc_eh.a(unwind-c.o)
 *(.text.exit .text.exit.*)
 *fill*         0x0000000000400cb9        0x7 
 .text.exit     0x0000000000400cc0       0x26 libc.a(sdlerror.o)
 *(.text.startup .text.startup.*)
 *fill*         0x0000000000400ce6        0xa 
 .text.startup  0x0000000000400cf0      0x25e libc.a(cacheinfo.o)
 *(.text.hot .text.hot.*)
 *(.text .stub .text.* .gnu.linkonce.t.*)
 .text          0x0000000000400f4e       0x2a crt1.o
                0x0000000000400f4e                _start
 .text          0x0000000000400f78        0x0 crti.o
 *fill*         0x0000000000400f78        0x8 
 .text          0x0000000000400f80       0xee crtbeginT.o
 .text          0x000000000040106e       0x20 hello.o
                0x000000000040106e                main
 *fill*         0x000000000040108e        0x2 
 .text          0x0000000000401090      0x335 libc.a(libc-start.o)
                0x0000000000401090                __libc_start_main
 *fill*         0x00000000004013c5        0xb 
 .text          0x00000000004013d0       0x9e libc.a(check_fds.o)
                0x00000000004013d0                __libc_check_standard_fds
 *fill*         0x000000000040146e        0x2 
 .text          0x0000000000401470      0x28f libc.a(libc-tls.o)
                0x0000000000401470                __libc_setup_tls
                0x0000000000401680                _dl_tls_setup
                0x00000000004016f0                __pthread_initialize_minimal
 *fill*         0x00000000004016ff        0x1 
 .text          0x0000000000401700       0xc3 libc.a(elf-init.o)
                0x0000000000401700                __libc_csu_init
                0x0000000000401790                __libc_csu_fini
 .text          0x00000000004017c3        0x0 libc.a(errno.o)
 *fill*         0x00000000004017c3        0xd 
 .text          0x00000000004017d0      0x17e libc.a(assert.o)
                0x00000000004017d0                __assert_fail_base
                0x0000000000401910                __assert_fail
 *fill*         0x000000000040194e        0x2 
 .text          0x0000000000401950        0xf libc.a(dcgettext.o)
                0x0000000000401950                __dcgettext
                0x0000000000401950                dcgettext
 *fill*         0x000000000040195f        0x1 
 .text          0x0000000000401960     0x16d6 libc.a(dcigettext.o)
                0x0000000000401b90                _nl_find_msg
                0x00000000004026f0                __dcigettext
 *fill*         0x0000000000403036        0xa 
 .text          0x0000000000403040      0x29a libc.a(finddomain.o)
                0x0000000000403040                _nl_find_domain
 *fill*         0x00000000004032da        0x6 
 .text          0x00000000004032e0     0x1689 libc.a(loadmsgcat.o)
                0x00000000004032e0                _nl_load_domain
 *fill*         0x0000000000404969        0x7 
 .text          0x0000000000404970      0x65d libc.a(localealias.o)
                0x0000000000404e30                _nl_expand_alias
 *fill*         0x0000000000404fcd        0x3 
 .text          0x0000000000404fd0      0x621 libc.a(l10nflist.o)
                0x0000000000404fd0                _nl_make_l10nflist
                0x00000000004054e0                _nl_normalize_codeset
 *fill*         0x00000000004055f1        0xf 
 .text          0x0000000000405600      0x2c6 libc.a(explodename.o)
                0x0000000000405600                _nl_explode_name
 *fill*         0x00000000004058c6        0xa 
 .text          0x00000000004058d0      0xfe8 libc.a(plural.o)
                0x00000000004058d0                __gettext_free_exp
                0x0000000000406050                __gettextparse
 *fill*         0x00000000004068b8        0x8 
 .text          0x00000000004068c0       0xdc libc.a(plural-exp.o)
                0x00000000004068c0                __gettext_extract_plural
 *fill*         0x000000000040699c        0x4 
 .text          0x00000000004069a0       0x38 libc.a(hash-string.o)
                0x00000000004069a0                __hash_string
 *fill*         0x00000000004069d8        0x8 
 .text          0x00000000004069e0        0x7 libc.a(bsd-_setjmp.o)
                0x00000000004069e0                _setjmp
 *fill*         0x00000000004069e7        0x9 
 .text          0x00000000004069f0      0x309 libc.a(abort.o)
                0x00000000004069f0                abort
 *fill*         0x0000000000406cf9        0x7 
 .text          0x0000000000406d00      0x648 libc.a(msort.o)
                0x0000000000407010                qsort_r
                0x0000000000407340                qsort
 *fill*         0x0000000000407348        0x8 
 .text          0x0000000000407350       0xdc libc.a(getenv.o)
                0x0000000000407350                getenv
 *fill*         0x000000000040742c        0x4 
 .text          0x0000000000407430      0x133 libc.a(exit.o)
                0x0000000000407430                __run_exit_handlers
                0x0000000000407550                exit
 *fill*         0x0000000000407563        0xd 
 .text          0x0000000000407570      0x23b libc.a(cxa_atexit.o)
                0x0000000000407570                __new_exitfn
                0x00000000004076d0                __internal_atexit
                0x0000000000407720                __cxa_atexit
 *fill*         0x00000000004077ab        0x5 
 .text          0x00000000004077b0       0x22 libc.a(strtoul.o)
                0x00000000004077b0                __strtoull_internal
                0x00000000004077b0                __strtoul_internal
                0x00000000004077c0                strtoul
                0x00000000004077c0                strtoull
                0x00000000004077c0                strtouq
 *fill*         0x00000000004077d2        0xe 
 .text          0x00000000004077e0      0x45a libc.a(strtoul_l.o)
                0x00000000004077e0                ____strtoul_l_internal
                0x00000000004077e0                ____strtoull_l_internal
                0x0000000000407c30                __strtoull_l
                0x0000000000407c30                strtoull_l
                0x0000000000407c30                strtoul_l
                0x0000000000407c30                __strtoul_l
 *fill*         0x0000000000407c3a        0x6 
 .text          0x0000000000407c40      0x24d libc.a(grouping.o)
                0x0000000000407c40                __correctly_grouped_prefixmb
 *fill*         0x0000000000407e8d        0x3 
 .text          0x0000000000407e90       0x8f libc.a(asprintf.o)
                0x0000000000407e90                __asprintf
                0x0000000000407e90                asprintf
                0x0000000000407e90                ___asprintf
 *fill*         0x0000000000407f1f        0x1 
 .text          0x0000000000407f20      0x143 libc.a(fxprintf.o)
                0x0000000000407f20                __fxprintf
 *fill*         0x0000000000408063        0xd 
 .text          0x0000000000408070      0x29f libc.a(iofclose.o)
                0x0000000000408070                _IO_fclose
                0x0000000000408070                _IO_new_fclose
                0x0000000000408070                fclose
                0x0000000000408070                __new_fclose
 *fill*         0x000000000040830f        0x1 
 .text          0x0000000000408310      0x14f libc.a(iofflush.o)
                0x0000000000408310                _IO_fflush
                0x0000000000408310                fflush
 *fill*         0x000000000040845f        0x1 
 .text          0x0000000000408460      0x1e8 libc.a(iofopen.o)
                0x0000000000408460                __fopen_maybe_mmap
                0x00000000004084a0                __fopen_internal
                0x0000000000408580                _IO_fopen64
                0x0000000000408580                _IO_new_fopen
                0x0000000000408580                fopen
                0x0000000000408580                _IO_fopen
                0x0000000000408580                __new_fopen
                0x0000000000408580                fopen64
 *fill*         0x0000000000408648        0x8 
 .text          0x0000000000408650      0x1dd libc.a(ioputs.o)
                0x0000000000408650                puts
                0x0000000000408650                _IO_puts
 *fill*         0x000000000040882d        0x3 
 .text          0x0000000000408830      0x147 libc.a(vasprintf.o)
                0x0000000000408830                _IO_vasprintf
                0x0000000000408830                vasprintf
 *fill*         0x0000000000408977        0x9 
 .text          0x0000000000408980        0x5 libc.a(fcloseall.o)
                0x0000000000408980                __fcloseall
                0x0000000000408980                fcloseall
 *fill*         0x0000000000408985        0xb 
 .text          0x0000000000408990      0x468 libc.a(libc_fatal.o)
                0x0000000000408b20                __libc_message
                0x0000000000408de0                __libc_fatal
 *fill*         0x0000000000408df8        0x8 
 .text          0x0000000000408e00       0x83 libc.a(iofgets_u.o)
                0x0000000000408e00                fgets_unlocked
 *fill*         0x0000000000408e83        0xd 
 .text          0x0000000000408e90     0x16cf libc.a(wfileops.o)
                0x0000000000408f60                _IO_wfile_underflow
                0x0000000000409550                _IO_wfile_seekoff
                0x0000000000409dd0                _IO_wdo_write
                0x0000000000409f10                _IO_wfile_overflow
                0x000000000040a1a0                _IO_wfile_sync
                0x000000000040a2f0                _IO_wfile_xsputn
 *fill*         0x000000000040a55f        0x1 
 .text          0x000000000040a560     0x2245 libc.a(fileops.o)
                0x000000000040a590                _IO_file_close
                0x000000000040a5a0                _IO_file_setbuf
                0x000000000040a5a0                _IO_new_file_setbuf
                0x000000000040a5d0                _IO_file_underflow
                0x000000000040a5d0                _IO_new_file_underflow
                0x000000000040a820                _IO_file_seekoff
                0x000000000040a820                _IO_new_file_seekoff
                0x000000000040ac50                _IO_file_close_mmap
                0x000000000040ac80                _IO_file_seek
                0x000000000040ae70                _IO_file_stat
                0x000000000040ae80                _IO_file_write
                0x000000000040ae80                _IO_new_file_write
                0x000000000040b1c0                _IO_file_xsgetn
                0x000000000040b3b0                _IO_file_seekoff_mmap
                0x000000000040b490                _IO_file_read
                0x000000000040b4b0                _IO_new_file_xsputn
                0x000000000040b4b0                _IO_file_xsputn
                0x000000000040b720                _IO_file_setbuf_mmap
                0x000000000040b790                _IO_file_underflow_maybe_mmap
                0x000000000040b8f0                _IO_file_underflow_mmap
                0x000000000040bb00                _IO_new_file_init
                0x000000000040bb00                _IO_file_init
                0x000000000040bb30                _IO_file_open
                0x000000000040bbe0                _IO_new_file_attach
                0x000000000040bbe0                _IO_file_attach
                0x000000000040bc60                _IO_new_do_write
                0x000000000040bc60                _IO_do_write
                0x000000000040bd70                _IO_new_file_close_it
                0x000000000040bd70                _IO_file_close_it
                0x000000000040bef0                _IO_new_file_fopen
                0x000000000040bef0                _IO_file_fopen
                0x000000000040c420                _IO_file_finish
                0x000000000040c420                _IO_new_file_finish
                0x000000000040c4a0                _IO_file_overflow
                0x000000000040c4a0                _IO_new_file_overflow
                0x000000000040c6a0                _IO_file_sync
                0x000000000040c6a0                _IO_new_file_sync
 *fill*         0x000000000040c7a5        0xb 
 .text          0x000000000040c7b0     0x2523 libc.a(genops.o)
                0x000000000040ca20                _IO_cleanup
                0x000000000040cca0                _IO_un_link
                0x000000000040cee0                _IO_link_in
                0x000000000040d0d0                _IO_least_marker
                0x000000000040d100                _IO_switch_to_main_get_area
                0x000000000040d130                _IO_switch_to_backup_area
                0x000000000040d160                _IO_switch_to_get_mode
                0x000000000040d1d0                _IO_free_backup_area
                0x000000000040d230                __overflow
                0x000000000040d260                __underflow
                0x000000000040d3e0                __uflow
                0x000000000040d570                _IO_setb
                0x000000000040d5e0                _IO_doallocbuf
                0x000000000040d680                _IO_default_underflow
                0x000000000040d690                _IO_default_uflow
                0x000000000040d6c0                _IO_default_xsputn
                0x000000000040d7f0                _IO_sgetn
                0x000000000040d800                _IO_default_xsgetn
                0x000000000040db20                _IO_default_setbuf
                0x000000000040dc40                _IO_default_seekpos
                0x000000000040dc60                _IO_default_doallocate
                0x000000000040dce0                _IO_init
                0x000000000040ddb0                _IO_old_init
                0x000000000040de60                _IO_no_init
                0x000000000040dfa0                _IO_default_sync
                0x000000000040dfb0                _IO_default_finish
                0x000000000040e030                _IO_default_seekoff
                0x000000000040e040                _IO_sputbackc
                0x000000000040e080                _IO_sungetc
                0x000000000040e0c0                _IO_adjust_column
                0x000000000040e100                _IO_flush_all_lockp
                0x000000000040e360                _IO_flush_all
                0x000000000040e370                _IO_flush_all_linebuffered
                0x000000000040e370                _flushlbf
                0x000000000040e580                _IO_init_marker
                0x000000000040e640                _IO_remove_marker
                0x000000000040e680                _IO_marker_difference
                0x000000000040e690                _IO_marker_delta
                0x000000000040e6c0                _IO_seekmark
                0x000000000040e760                _IO_unsave_markers
                0x000000000040e7d0                _IO_default_pbackfail
                0x000000000040e920                _IO_default_seek
                0x000000000040e930                _IO_default_stat
                0x000000000040e940                _IO_default_read
                0x000000000040e950                _IO_default_write
                0x000000000040e960                _IO_default_showmanyc
                0x000000000040e970                _IO_default_imbue
                0x000000000040e980                _IO_iter_begin
                0x000000000040e990                _IO_iter_end
                0x000000000040e9a0                _IO_iter_next
                0x000000000040e9b0                _IO_iter_file
                0x000000000040e9c0                _IO_list_lock
                0x000000000040ea10                _IO_list_unlock
                0x000000000040ea50                _IO_list_resetlock
 .text          0x000000000040ecd3        0x0 libc.a(stdfiles.o)
 .text          0x000000000040ecd3        0x0 libc.a(stdio.o)
 *fill*         0x000000000040ecd3        0xd 
 .text          0x000000000040ece0      0x772 libc.a(strops.o)
                0x000000000040ece0                _IO_str_underflow
                0x000000000040ed40                _IO_str_overflow
                0x000000000040f070                _IO_str_seekoff
                0x000000000040f230                _IO_str_pbackfail
                0x000000000040f250                _IO_str_finish
                0x000000000040f280                _IO_str_init_static_internal
                0x000000000040f320                _IO_str_init_static
                0x000000000040f3c0                _IO_str_init_readonly
                0x000000000040f440                _IO_str_count
 *fill*         0x000000000040f452        0xe 
 .text          0x000000000040f460     0x7915 libc.a(malloc.o)
                0x00000000004144f0                __malloc_check_init
                0x0000000000414550                malloc
                0x0000000000414550                __malloc
                0x0000000000414550                __libc_malloc
                0x00000000004147c0                malloc_get_state
                0x00000000004147c0                __malloc_get_state
                0x0000000000414bd0                __cfree
                0x0000000000414bd0                __free
                0x0000000000414bd0                __libc_free
                0x0000000000414bd0                cfree
                0x0000000000414bd0                free
                0x0000000000414cc0                __libc_realloc
                0x0000000000414cc0                realloc
                0x0000000000414cc0                __realloc
                0x0000000000414fd0                __libc_memalign
                0x0000000000414fd0                __memalign
                0x0000000000414fd0                memalign
                0x0000000000414fd0                aligned_alloc
                0x0000000000414fe0                __calloc
                0x0000000000414fe0                calloc
                0x0000000000414fe0                __libc_calloc
                0x00000000004152c0                malloc_usable_size
                0x00000000004152c0                __malloc_usable_size
                0x00000000004153a0                __libc_mallopt
                0x00000000004153a0                mallopt
                0x00000000004153a0                __mallopt
                0x0000000000415a10                malloc_set_state
                0x0000000000415a10                __malloc_set_state
                0x0000000000415f40                __libc_valloc
                0x0000000000415f40                valloc
                0x0000000000415f40                __valloc
                0x0000000000415f90                pvalloc
                0x0000000000415f90                __libc_pvalloc
                0x0000000000415f90                __pvalloc
                0x0000000000416010                __malloc_trim
                0x0000000000416010                malloc_trim
                0x00000000004162a0                __mallinfo
                0x00000000004162a0                __libc_mallinfo
                0x00000000004162a0                mallinfo
                0x00000000004163a0                malloc_stats
                0x00000000004163a0                __malloc_stats
                0x0000000000416590                __posix_memalign
                0x0000000000416590                posix_memalign
                0x00000000004165f0                malloc_info
 *fill*         0x0000000000416d75        0xb 
 .text          0x0000000000416d80       0x1b libc.a(morecore.o)
                0x0000000000416d80                __default_morecore
 *fill*         0x0000000000416d9b        0x5 
 .text          0x0000000000416da0      0x24a libc.a(strchr.o)
                0x0000000000416da0                index
                0x0000000000416da0                strchr
                0x0000000000416dd0                __strchr_sse2
                0x0000000000416dd0                __GI_strchr
 *fill*         0x0000000000416fea        0x6 
 .text          0x0000000000416ff0     0x1479 libc.a(strcmp.o)
                0x0000000000416ff0                strcmp
                0x0000000000417030                __strcmp_sse2
                0x0000000000417030                __GI_strcmp
 *fill*         0x0000000000418469        0x7 
 .text.sse4.2   0x0000000000418470      0xda9 libc.a(strcmp.o)
                0x0000000000418470                __strcmp_sse42
 *fill*         0x0000000000419219        0x7 
 .text          0x0000000000419220      0x11c libc.a(strcpy.o)
                0x0000000000419220                strcpy
                0x0000000000419260                __GI_strcpy
                0x0000000000419260                __strcpy_sse2
 *fill*         0x000000000041933c        0x4 
 .text          0x0000000000419340       0x41 libc.a(strdup.o)
                0x0000000000419340                __strdup
                0x0000000000419340                strdup
 *fill*         0x0000000000419381        0xf 
 .text          0x0000000000419390      0x1b4 libc.a(strlen.o)
                0x0000000000419390                strlen
 *fill*         0x0000000000419544        0xc 
 .text          0x0000000000419550     0x1849 libc.a(strncmp.o)
                0x0000000000419550                strncmp
 *fill*         0x000000000041ad99        0x7 
 .text          0x000000000041ada0      0xaf7 libc.a(strstr.o)
                0x000000000041b2a0                __strstr_sse2
                0x000000000041b860                strstr
                0x000000000041b860                __libc_strstr
 *fill*         0x000000000041b897        0x9 
 .text          0x000000000041b8a0      0x344 libc.a(memchr.o)
                0x000000000041b8a0                memchr
                0x000000000041b8a0                __memchr
 *fill*         0x000000000041bbe4        0xc 
 .text          0x000000000041bbf0      0x440 libc.a(memcmp.o)
                0x000000000041bbf0                bcmp
                0x000000000041bbf0                memcmp
                0x000000000041bc30                __memcmp_sse2
 .text          0x000000000041c030      0x1d7 libc.a(memmove.o)
                0x000000000041c030                __memmove_sse2
                0x000000000041c1c0                memmove
                0x000000000041c1c0                __libc_memmove
 *fill*         0x000000000041c207        0x9 
 .text          0x000000000041c210      0x127 libc.a(memset.o)
                0x000000000041c210                __bzero
                0x000000000041c210                bzero
                0x000000000041c220                __memset_tail
                0x000000000041c240                memset
 *fill*         0x000000000041c337        0x9 
 .text          0x000000000041c340      0x452 libc.a(mempcpy.o)
                0x000000000041c340                mempcpy
                0x000000000041c340                __mempcpy
 *fill*         0x000000000041c792        0xe 
 .text          0x000000000041c7a0      0x11c libc.a(stpcpy.o)
                0x000000000041c7a0                stpcpy
                0x000000000041c7a0                __stpcpy
                0x000000000041c7e0                __GI_stpcpy
                0x000000000041c7e0                __GI___stpcpy
                0x000000000041c7e0                __stpcpy_sse2
 *fill*         0x000000000041c8bc        0x4 
 .text          0x000000000041c8c0     0x22e6 libc.a(strcasecmp_l.o)
                0x000000000041c8c0                strcasecmp_l
                0x000000000041c8c0                __strcasecmp_l
                0x000000000041c910                strcasecmp
                0x000000000041c910                __strcasecmp
                0x000000000041c970                __strcasecmp_sse2
                0x000000000041c980                __GI___strcasecmp_l
                0x000000000041c980                __strcasecmp_l_sse2
 *fill*         0x000000000041eba6        0xa 
 .text.sse4.2   0x000000000041ebb0     0x1ba6 libc.a(strcasecmp_l.o)
                0x000000000041ebb0                __strcasecmp_sse42
                0x000000000041ebc0                __strcasecmp_l_sse42
 *fill*         0x0000000000420756        0xa 
 .text.avx      0x0000000000420760     0x1666 libc.a(strcasecmp_l.o)
                0x0000000000420760                __strcasecmp_avx
                0x0000000000420770                __strcasecmp_l_avx
 *fill*         0x0000000000421dc6        0xa 
 .text          0x0000000000421dd0      0x465 libc.a(memcpy.o)
                0x0000000000421dd0                memcpy
 *fill*         0x0000000000422235        0xb 
 .text          0x0000000000422240      0x536 libc.a(wordcopy.o)
                0x0000000000422240                _wordcopy_fwd_aligned
                0x0000000000422370                _wordcopy_fwd_dest_aligned
                0x00000000004224a0                _wordcopy_bwd_aligned
                0x0000000000422620                _wordcopy_bwd_dest_aligned
 *fill*         0x0000000000422776        0xa 
 .text          0x0000000000422780      0x204 libc.a(rawmemchr.o)
                0x0000000000422780                __rawmemchr
                0x0000000000422780                rawmemchr
 *fill*         0x0000000000422984        0xc 
 .text          0x0000000000422990      0x20a libc.a(strchrnul.o)
                0x0000000000422990                __strchrnul
                0x0000000000422990                strchrnul
 *fill*         0x0000000000422b9a        0x6 
 .text          0x0000000000422ba0       0x45 libc.a(argz-count.o)
                0x0000000000422ba0                argz_count
                0x0000000000422ba0                __argz_count
 *fill*         0x0000000000422be5        0xb 
 .text          0x0000000000422bf0       0x44 libc.a(argz-stringify.o)
                0x0000000000422bf0                argz_stringify
                0x0000000000422bf0                __argz_stringify
 .text          0x0000000000422c34        0x0 libc.a(strcmp-ssse3.o)
 *fill*         0x0000000000422c34        0xc 
 .text.ssse3    0x0000000000422c40     0x1259 libc.a(strcmp-ssse3.o)
                0x0000000000422c40                __strcmp_ssse3
 *fill*         0x0000000000423e99        0x7 
 .text          0x0000000000423ea0      0x2a3 libc.a(strcmp-sse2-unaligned.o)
                0x0000000000423ea0                __strcmp_sse2_unaligned
 .text          0x0000000000424143        0x0 libc.a(memcmp-sse4.o)
 *fill*         0x0000000000424143        0xd 
 .text.sse4.1   0x0000000000424150     0x163e libc.a(memcmp-sse4.o)
                0x0000000000424150                __memcmp_sse4_1
 .text          0x000000000042578e        0x0 libc.a(memmove-ssse3.o)
 *fill*         0x000000000042578e        0x2 
 .text.ssse3    0x0000000000425790     0x2b77 libc.a(memmove-ssse3.o)
                0x0000000000425790                __memmove_chk_ssse3
                0x00000000004257a0                __memmove_ssse3
 .text          0x0000000000428307        0x0 libc.a(memmove-ssse3-back.o)
 *fill*         0x0000000000428307        0x9 
 .text.ssse3    0x0000000000428310     0x2b16 libc.a(memmove-ssse3-back.o)
                0x0000000000428310                __memmove_chk_ssse3_back
                0x0000000000428320                __memmove_ssse3_back
 .text          0x000000000042ae26        0x0 libc.a(strcasecmp_l-ssse3.o)
 *fill*         0x000000000042ae26        0xa 
 .text.ssse3    0x000000000042ae30     0x2146 libc.a(strcasecmp_l-ssse3.o)
                0x000000000042ae30                __strcasecmp_ssse3
                0x000000000042ae40                __strcasecmp_l_ssse3
 .text          0x000000000042cf76        0x0 libc.a(strcpy-ssse3.o)
 *fill*         0x000000000042cf76        0xa 
 .text.ssse3    0x000000000042cf80     0x17a2 libc.a(strcpy-ssse3.o)
                0x000000000042cf80                __strcpy_ssse3
 .text          0x000000000042e722        0x0 libc.a(stpcpy-ssse3.o)
 *fill*         0x000000000042e722        0xe 
 .text.ssse3    0x000000000042e730     0x1803 libc.a(stpcpy-ssse3.o)
                0x000000000042e730                __stpcpy_ssse3
 *fill*         0x000000000042ff33        0xd 
 .text          0x000000000042ff40      0x630 libc.a(strcpy-sse2-unaligned.o)
                0x000000000042ff40                __strcpy_sse2_unaligned
 .text          0x0000000000430570      0x6b0 libc.a(stpcpy-sse2-unaligned.o)
                0x0000000000430570                __stpcpy_sse2_unaligned
 .text          0x0000000000430c20        0x0 libc.a(strchr-sse2-no-bsf.o)
 .text.atom     0x0000000000430c20      0x315 libc.a(strchr-sse2-no-bsf.o)
                0x0000000000430c20                __strchr_sse2_no_bsf
 .text          0x0000000000430f35        0x0 libc.a(memcmp-ssse3.o)
 *fill*         0x0000000000430f35        0xb 
 .text.atom     0x0000000000430f40     0x1763 libc.a(memcmp-ssse3.o)
                0x0000000000430f40                __memcmp_ssse3
 *fill*         0x00000000004326a3        0xd 
 .text          0x00000000004326b0      0x493 libc.a(strstr-sse2-unaligned.o)
                0x00000000004326b0                __strstr_sse2_unaligned
 *fill*         0x0000000000432b43        0xd 
 .text          0x0000000000432b50      0x637 libc.a(cacheinfo.o)
                0x0000000000433130                __cache_sysconf
 *fill*         0x0000000000433187        0x9 
 .text          0x0000000000433190       0x3b libc.a(strcasecmp_l-nonascii.o)
                0x0000000000433190                __strcasecmp_l_nonascii
 *fill*         0x00000000004331cb        0x5 
 .text          0x00000000004331d0        0x9 libc.a(wmempcpy.o)
                0x00000000004331d0                wmempcpy
                0x00000000004331d0                __wmempcpy
 *fill*         0x00000000004331d9        0x7 
 .text          0x00000000004331e0      0x492 libc.a(wcsmbsload.o)
                0x00000000004331e0                _nl_cleanup_ctype
                0x0000000000433230                __wcsmbs_getfct
                0x0000000000433290                __wcsmbs_load_conv
                0x0000000000433500                __wcsmbs_clone_conv
                0x0000000000433580                __wcsmbs_named_conv
 *fill*         0x0000000000433672        0xe 
 .text          0x0000000000433680       0x55 libc.a(_exit.o)
                0x0000000000433680                _Exit
                0x0000000000433680                _exit
 *fill*         0x00000000004336d5        0xb 
 .text          0x00000000004336e0      0x7c5 libc.a(sysconf.o)
                0x00000000004337c0                sysconf
                0x00000000004337c0                __sysconf
 *fill*         0x0000000000433ea5        0xb 
 .text          0x0000000000433eb0       0x14 libc.a(sched_yield.o)
                0x0000000000433eb0                __sched_yield
                0x0000000000433eb0                sched_yield
 *fill*         0x0000000000433ec4        0xc 
 .text          0x0000000000433ed0       0x27 libc.a(get_child_max.o)
                0x0000000000433ed0                __get_child_max
 .text          0x0000000000433ef7        0x0 libc.a(environ.o)
 *fill*         0x0000000000433ef7        0x9 
 .text          0x0000000000433f00       0x13 libc.a(exit-thread.o)
                0x0000000000433f00                __exit_thread
 *fill*         0x0000000000433f13        0xd 
 .text          0x0000000000433f20       0x45 libc.a(xstat.o)
                0x0000000000433f20                _xstat
                0x0000000000433f20                __xstat64
                0x0000000000433f20                __xstat
 *fill*         0x0000000000433f65        0xb 
 .text          0x0000000000433f70       0x45 libc.a(fxstat.o)
                0x0000000000433f70                __fxstat64
                0x0000000000433f70                _fxstat
                0x0000000000433f70                __fxstat
 *fill*         0x0000000000433fb5        0xb 
 .text          0x0000000000433fc0       0x51 libc.a(open.o)
                0x0000000000433fc0                __open
                0x0000000000433fc0                __libc_open
                0x0000000000433fc0                open64
                0x0000000000433fc0                open
                0x0000000000433fc0                __open64
                0x0000000000433fc9                __open_nocancel
 *fill*         0x0000000000434011        0xf 
 .text          0x0000000000434020       0x51 libc.a(read.o)
                0x0000000000434020                __read
                0x0000000000434020                __libc_read
                0x0000000000434020                read
                0x0000000000434029                __read_nocancel
 *fill*         0x0000000000434071        0xf 
 .text          0x0000000000434080       0x51 libc.a(write.o)
                0x0000000000434080                __write
                0x0000000000434080                write
                0x0000000000434080                __libc_write
                0x0000000000434089                __write_nocancel
 *fill*         0x00000000004340d1        0xf 
 .text          0x00000000004340e0      0x25d libc.a(fcntl.o)
                0x00000000004340e0                __fcntl_nocancel
                0x00000000004341d0                __libc_fcntl
                0x00000000004341d0                __fcntl
                0x00000000004341d0                fcntl
 *fill*         0x000000000043433d        0x3 
 .text          0x0000000000434340       0x51 libc.a(close.o)
                0x0000000000434340                __libc_close
                0x0000000000434340                __close
                0x0000000000434340                close
                0x0000000000434349                __close_nocancel
 *fill*         0x0000000000434391        0xf 
 .text          0x00000000004343a0      0x693 libc.a(getcwd.o)
                0x00000000004343a0                __getcwd
                0x00000000004343a0                getcwd
 *fill*         0x0000000000434a33        0xd 
 .text          0x0000000000434a40       0x14 libc.a(getrlimit.o)
                0x0000000000434a40                getrlimit
                0x0000000000434a40                getrlimit64
                0x0000000000434a40                __getrlimit
 *fill*         0x0000000000434a54        0xc 
 .text          0x0000000000434a60       0x81 libc.a(sbrk.o)
                0x0000000000434a60                sbrk
                0x0000000000434a60                __sbrk
 *fill*         0x0000000000434ae1        0xf 
 .text          0x0000000000434af0       0x28 libc.a(getpagesize.o)
                0x0000000000434af0                getpagesize
                0x0000000000434af0                __getpagesize
 *fill*         0x0000000000434b18        0x8 
 .text          0x0000000000434b20       0x23 libc.a(getdtsz.o)
                0x0000000000434b20                __getdtablesize
                0x0000000000434b20                getdtablesize
 *fill*         0x0000000000434b43        0xd 
 .text          0x0000000000434b50       0x17 libc.a(mmap.o)
                0x0000000000434b50                __mmap
                0x0000000000434b50                mmap
                0x0000000000434b50                __mmap64
                0x0000000000434b50                mmap64
 *fill*         0x0000000000434b67        0x9 
 .text          0x0000000000434b70       0x14 libc.a(munmap.o)
                0x0000000000434b70                munmap
                0x0000000000434b70                __munmap
 *fill*         0x0000000000434b84        0xc 
 .text          0x0000000000434b90       0x14 libc.a(mprotect.o)
                0x0000000000434b90                __mprotect
                0x0000000000434b90                mprotect
 *fill*         0x0000000000434ba4        0xc 
 .text          0x0000000000434bb0       0x14 libc.a(madvise.o)
                0x0000000000434bb0                madvise
                0x0000000000434bb0                __madvise
 *fill*         0x0000000000434bc4        0xc 
 .text          0x0000000000434bd0     0x1c75 libc.a(tsearch.o)
                0x0000000000435150                tsearch
                0x0000000000435150                __tsearch
                0x0000000000435460                tfind
                0x0000000000435460                __tfind
                0x00000000004354b0                tdelete
                0x00000000004354b0                __tdelete
                0x0000000000435940                __twalk
                0x0000000000435940                twalk
                0x00000000004367d0                __tdestroy
                0x00000000004367d0                tdestroy
 *fill*         0x0000000000436845        0xb 
 .text          0x0000000000436850      0x5da libc.a(getsysstats.o)
                0x0000000000436ad0                __get_nprocs
                0x0000000000436ad0                get_nprocs
                0x0000000000436d70                __get_nprocs_conf
                0x0000000000436d70                get_nprocs_conf
                0x0000000000436e10                get_phys_pages
                0x0000000000436e10                __get_phys_pages
                0x0000000000436e20                get_avphys_pages
                0x0000000000436e20                __get_avphys_pages
 *fill*         0x0000000000436e2a        0x6 
 .text          0x0000000000436e30       0x11 libc.a(getclktck.o)
                0x0000000000436e30                __getclktck
 *fill*         0x0000000000436e41        0xf 
 .text          0x0000000000436e50       0x46 libc.a(init-misc.o)
                0x0000000000436e50                __init_misc
 *fill*         0x0000000000436e96        0xa 
 .text          0x0000000000436ea0       0x51 libc.a(llseek.o)
                0x0000000000436ea0                __llseek
                0x0000000000436ea0                __lseek64
                0x0000000000436ea0                lseek
                0x0000000000436ea0                __libc_lseek64
                0x0000000000436ea0                llseek
                0x0000000000436ea0                __lseek
                0x0000000000436ea0                __libc_lseek
                0x0000000000436ea0                lseek64
                0x0000000000436ea9                __lseek_nocancel
 *fill*         0x0000000000436ef1        0xf 
 .text          0x0000000000436f00       0x17 libc.a(mremap.o)
                0x0000000000436f00                mremap
                0x0000000000436f00                __mremap
 *fill*         0x0000000000436f17        0x9 
 .text          0x0000000000436f20       0x40 libc.a(alloca_cutoff.o)
                0x0000000000436f20                __libc_alloca_cutoff
 .text          0x0000000000436f60       0x4c libc.a(libc-lowlevellock.o)
                0x0000000000436f60                __lll_lock_wait_private
                0x0000000000436f90                __lll_unlock_wake_private
 *fill*         0x0000000000436fac        0x4 
 .text          0x0000000000436fb0       0xb9 libc.a(libc-cancellation.o)
                0x0000000000436fb0                __libc_enable_asynccancel
                0x0000000000437010                __libc_disable_asynccancel
 *fill*         0x0000000000437069        0x7 
 .text          0x0000000000437070      0x1b6 libc.a(register-atfork.o)
                0x0000000000437070                __register_atfork
                0x00000000004371c0                __linkin_atfork
 .text          0x0000000000437226        0x0 libc.a(libc_multiple_threads.o)
 *fill*         0x0000000000437226        0xa 
 .text          0x0000000000437230        0xe libc.a(chk_fail.o)
                0x0000000000437230                __chk_fail
 *fill*         0x000000000043723e        0x2 
 .text          0x0000000000437240       0x54 libc.a(fortify_fail.o)
                0x0000000000437240                __fortify_fail
 *fill*         0x0000000000437294        0xc 
 .text          0x00000000004372a0       0xe4 libc.a(backtrace.o)
                0x0000000000437330                backtrace
                0x0000000000437330                __backtrace
 *fill*         0x0000000000437384        0xc 
 .text          0x0000000000437390      0x2cc libc.a(backtracesymsfd.o)
                0x0000000000437390                __backtrace_symbols_fd
                0x0000000000437390                backtrace_symbols_fd
 *fill*         0x000000000043765c        0x4 
 .text          0x0000000000437660      0xb34 libc.a(dl-support.o)
                0x0000000000437660                _dl_aux_init
                0x0000000000437870                _dl_non_dynamic_init
 *fill*         0x0000000000438194        0xc 
 .text          0x00000000004381a0      0x323 libc.a(dl-addr.o)
                0x00000000004381a0                _dl_addr
                0x0000000000438470                _dl_addr_inside_object
 *fill*         0x00000000004384c3        0xd 
 .text          0x00000000004384d0       0x45 libc.a(enbl-secure.o)
                0x00000000004384d0                __libc_init_secure
 *fill*         0x0000000000438515        0xb 
 .text          0x0000000000438520      0x105 libc.a(dl-sysdep.o)
                0x0000000000438520                _dl_discover_osversion
 *fill*         0x0000000000438625        0xb 
 .text          0x0000000000438630       0x99 libc.a(init-first.o)
                0x0000000000438630                __libc_init_first
                0x00000000004386c0                _dl_start
 *fill*         0x00000000004386c9        0x7 
 .text          0x00000000004386d0       0x10 libc.a(sysdep.o)
                0x00000000004386d0                __syscall_error
                0x00000000004386d3                __syscall_error_1
 .text          0x00000000004386e0      0x4cf libc.a(init-arch.o)
                0x00000000004386e0                __init_cpu_features
                0x0000000000438930                __get_cpu_features
 *fill*         0x0000000000438baf        0x1 
 .text          0x0000000000438bb0      0x770 libc.a(gconv_open.o)
                0x0000000000438bb0                __gconv_open
 .text          0x0000000000439320      0x239 libc.a(gconv.o)
                0x0000000000439320                __gconv
 *fill*         0x0000000000439559        0x7 
 .text          0x0000000000439560       0xa1 libc.a(gconv_close.o)
                0x0000000000439560                __gconv_close
 *fill*         0x0000000000439601        0xf 
 .text          0x0000000000439610     0x10ab libc.a(gconv_db.o)
                0x0000000000439610                __gconv_alias_compare
                0x0000000000439660                __gconv_get_modules_db
                0x0000000000439670                __gconv_get_alias_db
                0x0000000000439680                __gconv_release_step
                0x000000000043a180                __gconv_compare_alias
                0x000000000043a260                __gconv_find_transform
                0x000000000043a4f0                __gconv_close_transform
 *fill*         0x000000000043a6bb        0x5 
 .text          0x000000000043a6c0      0xd7d libc.a(gconv_conf.o)
                0x000000000043aae0                __gconv_get_path
                0x000000000043aea0                __gconv_read_conf
 *fill*         0x000000000043b43d        0x3 
 .text          0x000000000043b440      0x23a libc.a(gconv_builtin.o)
                0x000000000043b440                __gconv_get_builtin_trans
 *fill*         0x000000000043b67a        0x6 
 .text          0x000000000043b680     0x6039 libc.a(gconv_simple.o)
                0x000000000043b680                __gconv_btwoc_ascii
                0x000000000043b690                __gconv_transform_internal_ucs4
                0x000000000043bae0                __gconv_transform_ucs4_internal
                0x000000000043c0c0                __gconv_transform_internal_ucs4le
                0x000000000043c4f0                __gconv_transform_ucs4le_internal
                0x000000000043cad0                __gconv_transform_ascii_internal
                0x000000000043cf10                __gconv_transform_internal_ascii
                0x000000000043d860                __gconv_transform_internal_utf8
                0x000000000043e5b0                __gconv_transform_utf8_internal
                0x000000000043f570                __gconv_transform_ucs2_internal
                0x000000000043fc70                __gconv_transform_internal_ucs2
                0x0000000000440620                __gconv_transform_ucs2reverse_internal
                0x0000000000440d10                __gconv_transform_internal_ucs2reverse
 *fill*         0x00000000004416b9        0x7 
 .text          0x00000000004416c0      0x84b libc.a(gconv_trans.o)
                0x00000000004417a0                __gconv_transliterate
                0x0000000000441c30                __gconv_translit_find
 *fill*         0x0000000000441f0b        0x5 
 .text          0x0000000000441f10      0xa52 libc.a(gconv_cache.o)
                0x0000000000442010                __gconv_get_cache
                0x0000000000442020                __gconv_load_cache
                0x0000000000442200                __gconv_compare_alias_cache
                0x00000000004423b0                __gconv_lookup_cache
                0x0000000000442950                __gconv_release_cache
 *fill*         0x0000000000442962        0xe 
 .text          0x0000000000442970      0x298 libc.a(gconv_dl.o)
                0x0000000000442a00                __gconv_find_shlib
                0x0000000000442bf0                __gconv_release_shlib
 .text          0x0000000000442c08        0x0 libc.a(catnames.o)
 *fill*         0x0000000000442c08        0x8 
 .text          0x0000000000442c10      0x8c6 libc.a(setlocale.o)
                0x0000000000442ed0                setlocale
 *fill*         0x00000000004434d6        0xa 
 .text          0x00000000004434e0      0x55a libc.a(findlocale.o)
                0x00000000004434e0                _nl_find_locale
                0x00000000004439f0                _nl_remove_locale
 *fill*         0x0000000000443a3a        0x6 
 .text          0x0000000000443a40      0xa0e libc.a(loadlocale.o)
                0x0000000000443a40                _nl_intern_locale_data
                0x0000000000443d90                _nl_load_locale
                0x00000000004443f0                _nl_unload_locale
 *fill*         0x000000000044444e        0x2 
 .text          0x0000000000444450      0x511 libc.a(loadarchive.o)
                0x0000000000444450                _nl_load_locale_from_archive
 .text          0x0000000000444961        0x0 libc.a(C-ctype.o)
 .text          0x0000000000444961        0x0 libc.a(SYS_libc.o)
 .text          0x0000000000444961        0x0 libc.a(C_name.o)
 .text          0x0000000000444961        0x0 libc.a(xlocale.o)
 .text          0x0000000000444961        0x0 libc.a(global-locale.o)
 *fill*         0x0000000000444961        0xf 
 .text          0x0000000000444970       0x72 libc.a(lc-ctype.o)
                0x0000000000444970                _nl_postload_ctype
 .text          0x00000000004449e2        0x0 libc.a(C-messages.o)
 .text          0x00000000004449e2        0x0 libc.a(C-monetary.o)
 .text          0x00000000004449e2        0x0 libc.a(C-numeric.o)
 .text          0x00000000004449e2        0x0 libc.a(C-paper.o)
 .text          0x00000000004449e2        0x0 libc.a(C-name.o)
 .text          0x00000000004449e2        0x0 libc.a(C-address.o)
 .text          0x00000000004449e2        0x0 libc.a(C-telephone.o)
 .text          0x00000000004449e2        0x0 libc.a(C-measurement.o)
 .text          0x00000000004449e2        0x0 libc.a(C-identification.o)
 .text          0x00000000004449e2        0x0 libc.a(C-collate.o)
 *fill*         0x00000000004449e2        0xe 
 .text          0x00000000004449f0       0x17 libc.a(localename.o)
                0x00000000004449f0                __current_locale_name
 *fill*         0x0000000000444a07        0x9 
 .text          0x0000000000444a10       0xb7 libc.a(ctype-info.o)
                0x0000000000444a10                __ctype_b_loc
                0x0000000000444a30                __ctype_toupper_loc
                0x0000000000444a50                __ctype_tolower_loc
                0x0000000000444a70                __ctype_init
 *fill*         0x0000000000444ac7        0x9 
 .text          0x0000000000444ad0       0x1e libc.a(setfpucw.o)
                0x0000000000444ad0                __setfpucw
 .text          0x0000000000444aee        0x0 libc.a(fpu_control.o)
 *fill*         0x0000000000444aee        0x2 
 .text          0x0000000000444af0       0x57 libc.a(setjmp.o)
                0x0000000000444af0                __sigsetjmp
 *fill*         0x0000000000444b47        0x9 
 .text          0x0000000000444b50       0x26 libc.a(sigjmp.o)
                0x0000000000444b50                __sigjmp_save
 *fill*         0x0000000000444b76        0xa 
 .text          0x0000000000444b80       0x6b libc.a(raise.o)
                0x0000000000444b80                gsignal
                0x0000000000444b80                raise
 *fill*         0x0000000000444beb        0x5 
 .text          0x0000000000444bf0      0x24f libc.a(sigaction.o)
                0x0000000000444c10                __libc_sigaction
                0x0000000000444e20                sigaction
                0x0000000000444e20                __sigaction
 *fill*         0x0000000000444e3f        0x1 
 .text          0x0000000000444e40       0x2b libc.a(sigprocmask.o)
                0x0000000000444e40                __sigprocmask
                0x0000000000444e40                sigprocmask
 *fill*         0x0000000000444e6b        0x5 
 .text          0x0000000000444e70      0xe89 libc.a(qsort.o)
                0x0000000000444e70                _quicksort
 *fill*         0x0000000000445cf9        0x7 
 .text          0x0000000000445d00      0x74f libc.a(setenv.o)
                0x0000000000445d00                __add_to_environ
                0x0000000000446140                setenv
                0x0000000000446140                __setenv
                0x00000000004461a0                unsetenv
                0x00000000004461a0                __unsetenv
                0x00000000004462c0                clearenv
                0x00000000004462c0                __clearenv
 *fill*         0x000000000044644f        0x1 
 .text          0x0000000000446450       0x13 libc.a(secure-getenv.o)
                0x0000000000446450                secure_getenv
                0x0000000000446450                __libc_secure_getenv
 *fill*         0x0000000000446463        0xd 
 .text          0x0000000000446470       0x22 libc.a(strtol.o)
                0x0000000000446470                __strtol_internal
                0x0000000000446470                __strtoll_internal
                0x0000000000446480                strtoll
                0x0000000000446480                strtoq
                0x0000000000446480                strtol
 *fill*         0x0000000000446492        0xe 
 .text          0x00000000004464a0      0x4ba libc.a(strtol_l.o)
                0x00000000004464a0                ____strtol_l_internal
                0x00000000004464a0                ____strtoll_l_internal
                0x0000000000446950                strtoll_l
                0x0000000000446950                strtol_l
                0x0000000000446950                __strtoll_l
                0x0000000000446950                __strtol_l
 *fill*         0x000000000044695a        0x6 
 .text          0x0000000000446960      0x1ec libc.a(_itoa.o)
                0x0000000000446960                _itoa_word
                0x0000000000446a30                _fitoa_word
 .text          0x0000000000446b4c        0x0 libc.a(itoa-digits.o)
 .text          0x0000000000446b4c        0x0 libc.a(itoa-udigits.o)
 *fill*         0x0000000000446b4c        0x4 
 .text          0x0000000000446b50     0x53ae libc.a(vfprintf.o)
                0x0000000000446c00                _IO_vfprintf_internal
                0x0000000000446c00                _IO_vfprintf
                0x0000000000446c00                vfprintf
 *fill*         0x000000000044befe        0x2 
 .text          0x000000000044bf00     0x2866 libc.a(printf_fp.o)
                0x000000000044c060                ___printf_fp
                0x000000000044c060                __printf_fp
                0x000000000044e710                __guess_grouping
 *fill*         0x000000000044e766        0xa 
 .text          0x000000000044e770      0x133 libc.a(reg-printf.o)
                0x000000000044e770                __register_printf_specifier
                0x000000000044e770                register_printf_specifier
                0x000000000044e860                __register_printf_function
                0x000000000044e860                register_printf_function
 *fill*         0x000000000044e8a3        0xd 
 .text          0x000000000044e8b0     0x1b16 libc.a(printf_fphex.o)
                0x000000000044e8b0                __printf_fphex
 *fill*         0x00000000004503c6        0xa 
 .text          0x00000000004503d0      0x373 libc.a(reg-modifier.o)
                0x00000000004503d0                __register_printf_modifier
                0x00000000004503d0                register_printf_modifier
                0x0000000000450560                __handle_registered_modifier_mb
                0x0000000000450640                __handle_registered_modifier_wc
 *fill*         0x0000000000450743        0xd 
 .text          0x0000000000450750       0xf0 libc.a(reg-type.o)
                0x0000000000450750                __register_printf_type
                0x0000000000450750                register_printf_type
 .text          0x0000000000450840       0x8f libc.a(fprintf.o)
                0x0000000000450840                fprintf
                0x0000000000450840                _IO_fprintf
                0x0000000000450840                __fprintf
 *fill*         0x00000000004508cf        0x1 
 .text          0x00000000004508d0       0x8f libc.a(sscanf.o)
                0x00000000004508d0                __sscanf
                0x00000000004508d0                sscanf
                0x00000000004508d0                _IO_sscanf
 *fill*         0x000000000045095f        0x1 
 .text          0x0000000000450960       0x43 libc.a(funlockfile.o)
                0x0000000000450960                _IO_funlockfile
                0x0000000000450960                funlockfile
                0x0000000000450960                __funlockfile
 *fill*         0x00000000004509a3        0xd 
 .text          0x00000000004509b0     0x56ae libc.a(vfwprintf.o)
                0x0000000000450a90                _IO_vfwprintf
                0x0000000000450a90                vfwprintf
                0x0000000000450a90                __vfwprintf
 *fill*         0x000000000045605e        0x2 
 .text          0x0000000000456060      0x7e1 libc.a(printf-parsemb.o)
                0x0000000000456060                __parse_one_specmb
 *fill*         0x0000000000456841        0xf 
 .text          0x0000000000456850      0x74f libc.a(printf-parsewc.o)
                0x0000000000456850                __parse_one_specwc
 *fill*         0x0000000000456f9f        0x1 
 .text          0x0000000000456fa0      0x112 libc.a(filedoalloc.o)
                0x0000000000456fa0                _IO_file_doallocate
 *fill*         0x00000000004570b2        0xe 
 .text          0x00000000004570c0      0x17d libc.a(iofputs.o)
                0x00000000004570c0                _IO_fputs
                0x00000000004570c0                fputs
 *fill*         0x000000000045723d        0x3 
 .text          0x0000000000457240      0x1d1 libc.a(iofwrite.o)
                0x0000000000457240                _IO_fwrite
                0x0000000000457240                fwrite
 *fill*         0x0000000000457411        0xf 
 .text          0x0000000000457420      0x334 libc.a(iogetdelim.o)
                0x0000000000457420                __getdelim
                0x0000000000457420                getdelim
                0x0000000000457420                _IO_getdelim
 *fill*         0x0000000000457754        0xc 
 .text          0x0000000000457760      0x198 libc.a(iogetline.o)
                0x0000000000457760                _IO_getline_info
                0x00000000004578f0                _IO_getline
 *fill*         0x00000000004578f8        0x8 
 .text          0x0000000000457900       0xb1 libc.a(iopadn.o)
                0x0000000000457900                _IO_padn
 *fill*         0x00000000004579b1        0xf 
 .text          0x00000000004579c0       0x6e libc.a(iovsscanf.o)
                0x00000000004579c0                vsscanf
                0x00000000004579c0                __vsscanf
                0x00000000004579c0                _IO_vsscanf
 *fill*         0x0000000000457a2e        0x2 
 .text          0x0000000000457a30      0x594 libc.a(iofwide.o)
                0x0000000000457df0                _IO_fwide
 *fill*         0x0000000000457fc4        0xc 
 .text          0x0000000000457fd0       0x8b libc.a(wfiledoalloc.o)
                0x0000000000457fd0                _IO_wfile_doallocate
 *fill*         0x000000000045805b        0x5 
 .text          0x0000000000458060       0xd1 libc.a(iowpadn.o)
                0x0000000000458060                _IO_wpadn
 *fill*         0x0000000000458131        0xf 
 .text          0x0000000000458140     0x155d libc.a(wgenops.o)
                0x0000000000458380                _IO_least_wmarker
                0x00000000004583c0                _IO_switch_to_main_wget_area
                0x0000000000458400                _IO_switch_to_wbackup_area
                0x0000000000458440                _IO_wsetb
                0x00000000004584d0                _IO_wdefault_pbackfail
                0x00000000004586a0                _IO_wdefault_finish
                0x0000000000458740                _IO_wdefault_uflow
                0x0000000000458770                __woverflow
                0x00000000004587b0                __wuflow
                0x00000000004589b0                __wunderflow
                0x0000000000458bb0                _IO_wdefault_xsputn
                0x0000000000458d90                _IO_wdefault_xsgetn
                0x0000000000459110                _IO_wdoallocbuf
                0x00000000004591c0                _IO_wdefault_doallocate
                0x0000000000459250                _IO_switch_to_wget_mode
                0x00000000004592d0                _IO_free_wbackup_area
                0x0000000000459340                _IO_sputbackwc
                0x0000000000459390                _IO_sungetwc
                0x00000000004593e0                _IO_adjust_wcolumn
                0x0000000000459430                _IO_init_wmarker
                0x0000000000459500                _IO_wmarker_delta
                0x0000000000459550                _IO_seekwmark
                0x0000000000459610                _IO_unsave_wmarkers
 *fill*         0x000000000045969d        0x3 
 .text          0x00000000004596a0       0x49 libc.a(strndup.o)
                0x00000000004596a0                strndup
                0x00000000004596a0                __strndup
 *fill*         0x00000000004596e9        0x7 
 .text          0x00000000004596f0      0x173 libc.a(_strerror.o)
                0x00000000004596f0                __strerror_r
                0x00000000004596f0                strerror_r
 *fill*         0x0000000000459863        0xd 
 .text          0x0000000000459870      0x220 libc.a(strnlen.o)
                0x0000000000459870                __strnlen
                0x0000000000459870                strnlen
 .text          0x0000000000459a90      0x2e2 libc.a(strrchr.o)
                0x0000000000459a90                strrchr
                0x0000000000459a90                rindex
 *fill*         0x0000000000459d72        0xe 
 .text          0x0000000000459d80       0xea libc.a(argz-ctsep.o)
                0x0000000000459d80                __argz_create_sep
                0x0000000000459d80                argz_create_sep
 *fill*         0x0000000000459e6a        0x6 
 .text          0x0000000000459e70       0xae libc.a(argz-addsep.o)
                0x0000000000459e70                argz_add_sep
                0x0000000000459e70                __argz_add_sep
 *fill*         0x0000000000459f1e        0x2 
 .text          0x0000000000459f20        0x9 libc.a(wmemcpy.o)
                0x0000000000459f20                wmemcpy
                0x0000000000459f20                __wmemcpy
 *fill*         0x0000000000459f29        0x7 
 .text          0x0000000000459f30       0x75 libc.a(wmemset.o)
                0x0000000000459f30                wmemset
 *fill*         0x0000000000459fa5        0xb 
 .text          0x0000000000459fb0      0x298 libc.a(wcslen.o)
                0x0000000000459fb0                wcslen
                0x0000000000459fb0                __wcslen
 *fill*         0x000000000045a248        0x8 
 .text          0x000000000045a250        0x9 libc.a(wmemmove.o)
                0x000000000045a250                __wmemmove
                0x000000000045a250                wmemmove
 *fill*         0x000000000045a259        0x7 
 .text          0x000000000045a260      0x17f libc.a(btowc.o)
                0x000000000045a260                __btowc
                0x000000000045a260                btowc
 *fill*         0x000000000045a3df        0x1 
 .text          0x000000000045a3e0      0x1d0 libc.a(wcrtomb.o)
                0x000000000045a3e0                c32rtomb
                0x000000000045a3e0                __wcrtomb
                0x000000000045a3e0                wcrtomb
 .text          0x000000000045a5b0       0x1f libc.a(mbsrtowcs.o)
                0x000000000045a5b0                mbsrtowcs
                0x000000000045a5b0                __mbsrtowcs
 *fill*         0x000000000045a5cf        0x1 
 .text          0x000000000045a5d0      0x2a3 libc.a(wcsrtombs.o)
                0x000000000045a5d0                wcsrtombs
                0x000000000045a5d0                __wcsrtombs
 *fill*         0x000000000045a873        0xd 
 .text          0x000000000045a880       0x99 libc.a(wcsnlen.o)
                0x000000000045a880                wcsnlen
                0x000000000045a880                __wcsnlen
 *fill*         0x000000000045a919        0x7 
 .text          0x000000000045a920       0x22 libc.a(wcschrnul.o)
                0x000000000045a920                __wcschrnul
                0x000000000045a920                wcschrnul
 *fill*         0x000000000045a942        0xe 
 .text          0x000000000045a950      0x36b libc.a(mbsrtowcs_l.o)
                0x000000000045a950                __mbsrtowcs_l
 *fill*         0x000000000045acbb        0x5 
 .text          0x000000000045acc0        0x8 libc.a(time.o)
                0x000000000045acc0                time
 *fill*         0x000000000045acc8        0x8 
 .text          0x000000000045acd0     0x1677 libc.a(tzset.o)
                0x000000000045ad10                __tzstring
                0x000000000045add0                __tzset_parse_tz
                0x000000000045b920                __tzname_max
                0x000000000045b990                __tz_compute
                0x000000000045c080                __tzset
                0x000000000045c080                tzset
                0x000000000045c110                __tz_convert
 *fill*         0x000000000045c347        0x9 
 .text          0x000000000045c350     0x175b libc.a(tzfile.o)
                0x000000000045c350                __tzfile_read
                0x000000000045d230                __tzfile_default
                0x000000000045d410                __tzfile_compute
 *fill*         0x000000000045daab        0x5 
 .text          0x000000000045dab0      0x282 libc.a(opendir.o)
                0x000000000045dab0                __opendirat
                0x000000000045db60                __opendir
                0x000000000045db60                opendir
                0x000000000045dc20                __alloc_dir
 *fill*         0x000000000045dd32        0xe 
 .text          0x000000000045dd40       0x2c libc.a(closedir.o)
                0x000000000045dd40                __closedir
                0x000000000045dd40                closedir
 *fill*         0x000000000045dd6c        0x4 
 .text          0x000000000045dd70      0x10d libc.a(readdir.o)
                0x000000000045dd70                readdir
                0x000000000045dd70                __readdir64
                0x000000000045dd70                __readdir
                0x000000000045dd70                readdir64
 *fill*         0x000000000045de7d        0x3 
 .text          0x000000000045de80       0x97 libc.a(rewinddir.o)
                0x000000000045de80                rewinddir
 *fill*         0x000000000045df17        0x9 
 .text          0x000000000045df20       0x84 libc.a(getdents.o)
                0x000000000045df20                __getdents
                0x000000000045df20                __getdents64
 *fill*         0x000000000045dfa4        0xc 
 .text          0x000000000045dfb0       0x85 libc.a(fdopendir.o)
                0x000000000045dfb0                fdopendir
                0x000000000045dfb0                __fdopendir
 *fill*         0x000000000045e035        0xb 
 .text          0x000000000045e040       0x14 libc.a(uname.o)
                0x000000000045e040                uname
                0x000000000045e040                __uname
 *fill*         0x000000000045e054        0xc 
 .text          0x000000000045e060      0x2da libc.a(fork.o)
                0x000000000045e060                fork
                0x000000000045e060                __libc_fork
                0x000000000045e060                __fork
 *fill*         0x000000000045e33a        0x6 
 .text          0x000000000045e340        0x8 libc.a(getuid.o)
                0x000000000045e340                getuid
                0x000000000045e340                __getuid
 *fill*         0x000000000045e348        0x8 
 .text          0x000000000045e350        0x8 libc.a(geteuid.o)
                0x000000000045e350                geteuid
                0x000000000045e350                __geteuid
 *fill*         0x000000000045e358        0x8 
 .text          0x000000000045e360        0x8 libc.a(getgid.o)
                0x000000000045e360                getgid
                0x000000000045e360                __getgid
 *fill*         0x000000000045e368        0x8 
 .text          0x000000000045e370        0x8 libc.a(getegid.o)
                0x000000000045e370                getegid
                0x000000000045e370                __getegid
 *fill*         0x000000000045e378        0x8 
 .text          0x000000000045e380       0x45 libc.a(lxstat.o)
                0x000000000045e380                _lxstat
                0x000000000045e380                __lxstat
                0x000000000045e380                __lxstat64
 *fill*         0x000000000045e3c5        0xb 
 .text          0x000000000045e3d0       0x4d libc.a(fxstatat.o)
                0x000000000045e3d0                __fxstatat
                0x000000000045e3d0                __fxstatat64
                0x000000000045e3d0                __GI___fxstatat64
 *fill*         0x000000000045e41d        0x3 
 .text          0x000000000045e420      0x10b libc.a(openat.o)
                0x000000000045e420                __openat64_nocancel
                0x000000000045e420                __openat_nocancel
                0x000000000045e450                __openat64
                0x000000000045e450                openat64
                0x000000000045e450                __openat
                0x000000000045e450                openat
 *fill*         0x000000000045e52b        0x5 
 .text          0x000000000045e530       0x14 libc.a(access.o)
                0x000000000045e530                access
                0x000000000045e530                __access
 *fill*         0x000000000045e544        0xc 
 .text          0x000000000045e550       0x19 libc.a(isatty.o)
                0x000000000045e550                isatty
                0x000000000045e550                __isatty
 *fill*         0x000000000045e569        0x7 
 .text          0x000000000045e570       0xa9 libc.a(tcgetattr.o)
                0x000000000045e570                __tcgetattr
                0x000000000045e570                tcgetattr
 *fill*         0x000000000045e619        0x7 
 .text          0x000000000045e620       0x5e libc.a(brk.o)
                0x000000000045e620                __brk
                0x000000000045e620                brk
 *fill*         0x000000000045e67e        0x2 
 .text          0x000000000045e680       0x93 libc.a(writev.o)
                0x000000000045e680                writev
                0x000000000045e680                __libc_writev
                0x000000000045e680                __writev
 *fill*         0x000000000045e713        0xd 
 .text          0x000000000045e720       0x85 libc.a(wctrans.o)
                0x000000000045e720                __wctrans
                0x000000000045e720                wctrans
 *fill*         0x000000000045e7a5        0xb 
 .text          0x000000000045e7b0       0x4a libc.a(towctrans.o)
                0x000000000045e7b0                towctrans
                0x000000000045e7b0                __towctrans
 *fill*         0x000000000045e7fa        0x6 
 .text          0x000000000045e800      0x1b1 libc.a(readonly-area.o)
                0x000000000045e800                __readonly_area
 *fill*         0x000000000045e9b1        0xf 
 .text          0x000000000045e9c0     0x4294 libc.a(dl-load.o)
                0x0000000000460d10                _dl_dst_count
                0x0000000000460ed0                _dl_dst_substitute
                0x00000000004619e0                _dl_init_paths
                0x0000000000461d20                _dl_map_object
                0x0000000000462660                _dl_rtld_di_serinfo
 *fill*         0x0000000000462c54        0xc 
 .text          0x0000000000462c60     0x16e9 libc.a(dl-lookup.o)
                0x0000000000463690                _dl_lookup_symbol_x
                0x00000000004642a0                _dl_setup_hash
 *fill*         0x0000000000464349        0x7 
 .text          0x0000000000464350      0x39e libc.a(dl-object.o)
                0x0000000000464350                _dl_add_to_namespace_list
                0x00000000004643f0                _dl_new_object
 *fill*         0x00000000004646ee        0x2 
 .text          0x00000000004646f0     0x16fa libc.a(dl-reloc.o)
                0x00000000004646f0                _dl_try_allocate_static_tls
                0x00000000004647b0                _dl_allocate_static_tls
                0x0000000000464870                _dl_nothread_init_static_tls
                0x00000000004648f0                _dl_protect_relro
                0x0000000000464950                _dl_reloc_bad_type
                0x0000000000464a30                _dl_relocate_object
 *fill*         0x0000000000465dea        0x6 
 .text          0x0000000000465df0      0x774 libc.a(dl-hwcaps.o)
                0x0000000000465df0                _dl_important_hwcaps
 *fill*         0x0000000000466564        0xc 
 .text          0x0000000000466570      0x307 libc.a(dl-error.o)
                0x0000000000466570                _dl_signal_error
                0x00000000004666e0                _dl_signal_cerror
                0x0000000000466760                _dl_catch_error
                0x0000000000466820                _dl_receive_error
 *fill*         0x0000000000466877        0x9 
 .text          0x0000000000466880       0x7c libc.a(dl-debug.o)
                0x0000000000466880                _dl_debug_state
                0x0000000000466890                _dl_debug_initialize
 *fill*         0x00000000004668fc        0x4 
 .text          0x0000000000466900      0x8fe libc.a(dl-misc.o)
                0x0000000000466e90                _dl_sysdep_read_whole_file
                0x0000000000466f20                _dl_debug_printf
                0x0000000000466fd0                _dl_debug_printf_c
                0x0000000000467080                _dl_dprintf
                0x0000000000467120                _dl_name_match_p
                0x0000000000467190                _dl_higher_prime_number
 *fill*         0x00000000004671fe        0x2 
 .text          0x0000000000467200      0x786 libc.a(dl-tls.o)
                0x0000000000467200                _dl_next_tls_modid
                0x00000000004672e0                _dl_get_tls_static_info
                0x0000000000467300                _dl_allocate_tls_storage
                0x0000000000467440                _dl_allocate_tls_init
                0x0000000000467660                _dl_allocate_tls
                0x00000000004677b0                _dl_deallocate_tls
                0x0000000000467840                _dl_tls_get_addr_soft
                0x00000000004678b0                _dl_add_to_slotinfo
 *fill*         0x0000000000467986        0xa 
 .text          0x0000000000467990      0x167 libc.a(dl-origin.o)
                0x0000000000467990                _dl_get_origin
 *fill*         0x0000000000467af7        0x9 
 .text          0x0000000000467b00       0xbb libc.a(dl-scope.o)
                0x0000000000467b00                _dl_scope_free
 *fill*         0x0000000000467bbb        0x5 
 .text          0x0000000000467bc0       0x52 libc.a(dl-execstack.o)
                0x0000000000467bc0                _dl_make_stack_executable
 *fill*         0x0000000000467c12        0xe 
 .text          0x0000000000467c20      0xf29 libc.a(dl-open.o)
                0x0000000000467e40                _dl_find_dso_for_object
                0x0000000000467ed0                _dl_open
                0x0000000000468170                _dl_show_scope
 *fill*         0x0000000000468b49        0x7 
 .text          0x0000000000468b50      0xe48 libc.a(dl-close.o)
                0x0000000000468c90                _dl_close_worker
                0x0000000000469920                _dl_close
 *fill*         0x0000000000469998        0x8 
 .text          0x00000000004699a0      0x5cd libc.a(dl-trampoline.o)
                0x00000000004699a0                _dl_runtime_resolve
                0x0000000000469a10                _dl_runtime_profile
 *fill*         0x0000000000469f6d        0x3 
 .text          0x0000000000469f70      0xa88 libc.a(dl-cache.o)
                0x0000000000469f70                _dl_cache_libcmp
                0x000000000046a060                _dl_load_cache_lookup
                0x000000000046a9c0                _dl_unload_cache
 *fill*         0x000000000046a9f8        0x8 
 .text          0x000000000046aa00       0x32 libc.a(dl-profstub.o)
                0x000000000046aa00                _dl_mcount_wrapper
                0x000000000046aa10                _dl_mcount_wrapper_check
 *fill*         0x000000000046aa32        0xe 
 .text          0x000000000046aa40      0x425 libc.a(dl-libc.o)
                0x000000000046ab60                __libc_dlclose
                0x000000000046abd0                __libc_dlsym
                0x000000000046ac50                __libc_dlopen_mode
                0x000000000046ad60                __libc_dlsym_private
                0x000000000046ade0                __libc_register_dl_open_hook
 *fill*         0x000000000046ae65        0xb 
 .text          0x000000000046ae70       0x10 libc.a(dl-tsd.o)
                0x000000000046ae70                _dl_initial_error_catch_tsd
 .text          0x000000000046ae80      0x1e9 libc.a(tlsdesc.o)
                0x000000000046ae80                _dl_tlsdesc_resolve_rela_fixup
                0x000000000046b010                _dl_tlsdesc_resolve_hold_fixup
                0x000000000046b050                _dl_unmap
 *fill*         0x000000000046b069        0x7 
 .text          0x000000000046b070      0x101 libc.a(dl-tlsdesc.o)
                0x000000000046b070                _dl_tlsdesc_return
                0x000000000046b080                _dl_tlsdesc_undefweak
                0x000000000046b090                _dl_tlsdesc_resolve_rela
                0x000000000046b100                _dl_tlsdesc_resolve_hold
 .text          0x000000000046b171        0x0 libc.a(C-time.o)
 .text          0x000000000046b171        0x0 libc.a(lc-monetary.o)
 .text          0x000000000046b171        0x0 libc.a(lc-numeric.o)
 *fill*         0x000000000046b171        0xf 
 .text          0x000000000046b180       0x35 libc.a(s_isinf.o)
                0x000000000046b180                __isinf
                0x000000000046b180                isinf
 *fill*         0x000000000046b1b5        0xb 
 .text          0x000000000046b1c0       0x24 libc.a(s_isnan.o)
                0x000000000046b1c0                __isnan
                0x000000000046b1c0                isnan
 *fill*         0x000000000046b1e4        0xc 
 .text          0x000000000046b1f0       0x44 libc.a(s_isinfl.o)
                0x000000000046b1f0                isinfl
                0x000000000046b1f0                __isinfl
 *fill*         0x000000000046b234        0xc 
 .text          0x000000000046b240       0x35 libc.a(s_isnanl.o)
                0x000000000046b240                __isnanl
                0x000000000046b240                isnanl
 *fill*         0x000000000046b275        0xb 
 .text          0x000000000046b280       0x50 libc.a(__longjmp.o)
                0x000000000046b280                __longjmp
 .text          0x000000000046b2d0       0x3b libc.a(cmp.o)
                0x000000000046b2d0                __mpn_cmp
 *fill*         0x000000000046b30b        0x5 
 .text          0x000000000046b310      0x47e libc.a(divrem.o)
                0x000000000046b310                __mpn_divrem
 *fill*         0x000000000046b78e        0x2 
 .text          0x000000000046b790      0x103 libc.a(lshift.o)
                0x000000000046b790                __mpn_lshift
 *fill*         0x000000000046b893        0xd 
 .text          0x000000000046b8a0      0x103 libc.a(rshift.o)
                0x000000000046b8a0                __mpn_rshift
 *fill*         0x000000000046b9a3        0xd 
 .text          0x000000000046b9b0      0x389 libc.a(mul.o)
                0x000000000046b9b0                __mpn_mul
 *fill*         0x000000000046bd39        0x7 
 .text          0x000000000046bd40      0x119 libc.a(mul_1.o)
                0x000000000046bd40                __mpn_mul_1
 *fill*         0x000000000046be59        0x7 
 .text          0x000000000046be60      0x9ae libc.a(mul_n.o)
                0x000000000046be60                __mpn_impn_mul_n_basecase
                0x000000000046bf60                __mpn_impn_mul_n
                0x000000000046c350                __mpn_impn_sqr_n_basecase
                0x000000000046c430                __mpn_impn_sqr_n
                0x000000000046c7a0                __mpn_mul_n
 *fill*         0x000000000046c80e        0x2 
 .text          0x000000000046c810       0xad libc.a(sub_n.o)
                0x000000000046c810                __mpn_sub_n
 *fill*         0x000000000046c8bd        0x3 
 .text          0x000000000046c8c0       0xeb libc.a(submul_1.o)
                0x000000000046c8c0                __mpn_submul_1
 *fill*         0x000000000046c9ab        0x5 
 .text          0x000000000046c9b0       0x9c libc.a(dbl2mpn.o)
                0x000000000046c9b0                __mpn_extract_double
 *fill*         0x000000000046ca4c        0x4 
 .text          0x000000000046ca50       0xb5 libc.a(ldbl2mpn.o)
                0x000000000046ca50                __mpn_extract_long_double
 .text          0x000000000046cb05        0x0 libc.a(fpioconst.o)
 .text          0x000000000046cb05        0x0 libc.a(itowa-digits.o)
 *fill*         0x000000000046cb05        0xb 
 .text          0x000000000046cb10     0x90dd libc.a(vfscanf.o)
                0x000000000046cb10                _IO_vfscanf_internal
                0x000000000046cb10                _IO_vfscanf
                0x0000000000475bb0                vfscanf
                0x0000000000475bb0                __vfscanf
                0x0000000000475bb0                ___vfscanf
 .text          0x0000000000475bed        0x0 libc.a(errlist.o)
 *fill*         0x0000000000475bed        0x3 
 .text          0x0000000000475bf0       0x2c libc.a(fileno.o)
                0x0000000000475bf0                fileno_unlocked
                0x0000000000475bf0                fileno
 *fill*         0x0000000000475c1c        0x4 
 .text          0x0000000000475c20      0x14a libc.a(fseek.o)
                0x0000000000475c20                fseek
 *fill*         0x0000000000475d6a        0x6 
 .text          0x0000000000475d70      0x18e libc.a(ftello.o)
                0x0000000000475d70                ftello64
                0x0000000000475d70                ftello
 *fill*         0x0000000000475efe        0x2 
 .text          0x0000000000475f00       0x46 libc.a(iofread_u.o)
                0x0000000000475f00                fread_unlocked
 *fill*         0x0000000000475f46        0xa 
 .text          0x0000000000475f50      0x35f libc.a(sdlerror.o)
                0x0000000000475f90                __dlerror
                0x0000000000476180                _dlerror_run
                0x0000000000476290                __libc_register_dlfcn_hook
 *fill*         0x00000000004762af        0x1 
 .text          0x00000000004762b0        0x9 libc.a(sdladdr.o)
                0x00000000004762b0                __dladdr
 *fill*         0x00000000004762b9        0x7 
 .text          0x00000000004762c0       0x22 libc.a(sdladdr1.o)
                0x00000000004762c0                __dladdr1
 *fill*         0x00000000004762e2        0xe 
 .text          0x00000000004762f0      0x102 libc.a(sdlinfo.o)
                0x00000000004763c0                __dlinfo
 *fill*         0x00000000004763f2        0xe 
 .text          0x0000000000476400       0xba libc.a(sdlmopen.o)
                0x0000000000476470                __dlmopen
 *fill*         0x00000000004764ba        0x6 
 .text          0x00000000004764c0       0x7b libc.a(strerror.o)
                0x00000000004764c0                strerror
 *fill*         0x000000000047653b        0x5 
 .text          0x0000000000476540       0x7c libc.a(strsep.o)
                0x0000000000476540                __strsep
                0x0000000000476540                strsep
                0x0000000000476540                __strsep_g
 *fill*         0x00000000004765bc        0x4 
 .text          0x00000000004765c0       0x19 libc.a(mbrlen.o)
                0x00000000004765c0                mbrlen
                0x00000000004765c0                __mbrlen
 *fill*         0x00000000004765d9        0x7 
 .text          0x00000000004765e0      0x218 libc.a(mbrtowc.o)
                0x00000000004765e0                mbrtowc
                0x00000000004765e0                mbrtoc32
                0x00000000004765e0                __mbrtowc
 *fill*         0x00000000004767f8        0x8 
 .text          0x0000000000476800      0x410 libc.a(offtime.o)
                0x0000000000476800                __offtime
 .text          0x0000000000476c10       0x1f libc.a(localtime.o)
                0x0000000000476c10                __localtime_r
                0x0000000000476c10                localtime_r
                0x0000000000476c20                localtime
 *fill*         0x0000000000476c2f        0x1 
 .text          0x0000000000476c30     0x1458 libc.a(mktime.o)
                0x0000000000476c30                __mktime_internal
                0x0000000000477670                mktime
                0x0000000000477670                timelocal
 *fill*         0x0000000000478088        0x8 
 .text          0x0000000000478090       0x3d libc.a(getpid.o)
                0x0000000000478090                __getpid
                0x0000000000478090                getpid
 *fill*         0x00000000004780cd        0x3 
 .text          0x00000000004780d0     0x1715 libc.a(dl-deps.o)
                0x00000000004785c0                _dl_map_object_deps
 *fill*         0x00000000004797e5        0xb 
 .text          0x00000000004797f0      0x3d2 libc.a(dl-runtime.o)
                0x00000000004797f0                _dl_fixup
                0x00000000004799b0                _dl_profile_fixup
                0x0000000000479bc0                _dl_call_pltexit
 *fill*         0x0000000000479bc2        0xe 
 .text          0x0000000000479bd0      0x225 libc.a(dl-init.o)
                0x0000000000479ce0                _dl_init
 *fill*         0x0000000000479df5        0xb 
 .text          0x0000000000479e00      0x7f0 libc.a(dl-fini.o)
                0x0000000000479e00                _dl_sort_fini
                0x000000000047a090                _dl_fini
 .text          0x000000000047a5f0      0x827 libc.a(dl-version.o)
                0x000000000047a950                _dl_check_map_versions
                0x000000000047adb0                _dl_check_all_versions
 *fill*         0x000000000047ae17        0x9 
 .text          0x000000000047ae20      0x9bf libc.a(dl-profile.o)
                0x000000000047ae20                _dl_start_profile
                0x000000000047b580                _dl_mcount
 *fill*         0x000000000047b7df        0x1 
 .text          0x000000000047b7e0       0xad libc.a(add_n.o)
                0x000000000047b7e0                __mpn_add_n
 *fill*         0x000000000047b88d        0x3 
 .text          0x000000000047b890       0xeb libc.a(addmul_1.o)
                0x000000000047b890                __mpn_addmul_1
 *fill*         0x000000000047b97b        0x5 
 .text          0x000000000047b980       0x22 libc.a(strtof.o)
                0x000000000047b980                __strtof_internal
                0x000000000047b990                strtof
 *fill*         0x000000000047b9a2        0xe 
 .text          0x000000000047b9b0       0x22 libc.a(strtod.o)
                0x000000000047b9b0                __strtod_internal
                0x000000000047b9c0                strtod
 *fill*         0x000000000047b9d2        0xe 
 .text          0x000000000047b9e0       0x22 libc.a(strtold.o)
                0x000000000047b9e0                __strtold_internal
                0x000000000047b9f0                strtold
 *fill*         0x000000000047ba02        0xe 
 .text          0x000000000047ba10     0x2dda libc.a(strtof_l.o)
                0x000000000047c170                ____strtof_l_internal
                0x000000000047e7e0                strtof_l
                0x000000000047e7e0                __strtof_l
 *fill*         0x000000000047e7ea        0x6 
 .text          0x000000000047e7f0     0x29fa libc.a(strtod_l.o)
                0x000000000047ef90                ____strtod_l_internal
                0x00000000004811e0                __strtod_l
                0x00000000004811e0                strtod_l
 *fill*         0x00000000004811ea        0x6 
 .text          0x00000000004811f0     0x28ca libc.a(strtold_l.o)
                0x0000000000481930                ____strtold_l_internal
                0x0000000000483ab0                __strtold_l
                0x0000000000483ab0                strtold_l
 .text          0x0000000000483aba        0x0 libc.a(tens_in_limb.o)
 *fill*         0x0000000000483aba        0x6 
 .text          0x0000000000483ac0      0x2f0 libc.a(ioseekoff.o)
                0x0000000000483ac0                _IO_seekoff_unlocked
                0x0000000000483ba0                _IO_seekoff
 .text          0x0000000000483db0       0xc5 libc.a(sdlopen.o)
                0x0000000000483e30                __dlopen
 *fill*         0x0000000000483e75        0xb 
 .text          0x0000000000483e80       0x30 libc.a(sdlclose.o)
                0x0000000000483e90                __dlclose
 .text          0x0000000000483eb0       0x7c libc.a(sdlsym.o)
                0x0000000000483ed0                __dlsym
 *fill*         0x0000000000483f2c        0x4 
 .text          0x0000000000483f30       0xa4 libc.a(sdlvsym.o)
                0x0000000000483f50                __dlvsym
 *fill*         0x0000000000483fd4        0xc 
 .text          0x0000000000483fe0       0x9c libc.a(strpbrk.o)
                0x0000000000483fe0                strpbrk
 *fill*         0x000000000048407c        0x4 
 .text          0x0000000000484080     0x26f6 libc.a(strncase_l.o)
                0x0000000000484080                strncasecmp_l
                0x0000000000484080                __strncasecmp_l
                0x00000000004840d0                __strncasecmp
                0x00000000004840d0                strncasecmp
                0x0000000000484130                __strncasecmp_sse2
                0x0000000000484140                __strncasecmp_l_sse2
                0x0000000000484140                __GI___strncasecmp_l
 *fill*         0x0000000000486776        0xa 
 .text.sse4.2   0x0000000000486780     0x1fc6 libc.a(strncase_l.o)
                0x0000000000486780                __strncasecmp_sse42
                0x0000000000486790                __strncasecmp_l_sse42
 *fill*         0x0000000000488746        0xa 
 .text.avx      0x0000000000488750     0x19a6 libc.a(strncase_l.o)
                0x0000000000488750                __strncasecmp_avx
                0x0000000000488760                __strncasecmp_l_avx
 .text          0x000000000048a0f6        0x0 libc.a(strncase_l-ssse3.o)
 *fill*         0x000000000048a0f6        0xa 
 .text.ssse3    0x000000000048a100     0x2556 libc.a(strncase_l-ssse3.o)
                0x000000000048a100                __strncasecmp_ssse3
                0x000000000048a110                __strncasecmp_l_ssse3
 *fill*         0x000000000048c656        0xa 
 .text          0x000000000048c660       0x43 libc.a(strncase_l-nonascii.o)
                0x000000000048c660                __strncasecmp_l_nonascii
 *fill*         0x000000000048c6a3        0xd 
 .text          0x000000000048c6b0      0x247 libc.a(profil.o)
                0x000000000048c700                __profil
                0x000000000048c700                profil
 *fill*         0x000000000048c8f7        0x9 
 .text          0x000000000048c900        0x7 libc.a(prof-freq.o)
                0x000000000048c900                __profile_frequency
 *fill*         0x000000000048c907        0x9 
 .text          0x000000000048c910      0x3ad libc.a(dl-sym.o)
                0x000000000048cbe0                _dl_vsym
                0x000000000048ccb0                _dl_sym
 *fill*         0x000000000048ccbd        0x3 
 .text          0x000000000048ccc0       0x24 libc.a(mpn2flt.o)
                0x000000000048ccc0                __mpn_construct_float
 *fill*         0x000000000048cce4        0xc 
 .text          0x000000000048ccf0       0x3a libc.a(mpn2dbl.o)
                0x000000000048ccf0                __mpn_construct_double
 *fill*         0x000000000048cd2a        0x6 
 .text          0x000000000048cd30       0x3f libc.a(mpn2ldbl.o)
                0x000000000048cd30                __mpn_construct_long_double
 *fill*         0x000000000048cd6f        0x1 
 .text          0x000000000048cd70       0x14 libc.a(setitimer.o)
                0x000000000048cd70                setitimer
                0x000000000048cd70                __setitimer
 *fill*         0x000000000048cd84        0xc 
 .text          0x000000000048cd90     0x2c07 libgcc_eh.a(unwind-dw2.o)
                0x000000000048f280                _Unwind_GetGR
                0x000000000048f2d0                _Unwind_GetCFA
                0x000000000048f2e0                _Unwind_SetGR
                0x000000000048f330                _Unwind_GetIP
                0x000000000048f340                _Unwind_GetIPInfo
                0x000000000048f360                _Unwind_SetIP
                0x000000000048f370                _Unwind_GetLanguageSpecificData
                0x000000000048f380                _Unwind_GetRegionStart
                0x000000000048f390                _Unwind_FindEnclosingFunction
                0x000000000048f3c0                _Unwind_GetDataRelBase
                0x000000000048f3d0                _Unwind_GetTextRelBase
                0x000000000048f3e0                __frame_state_for
                0x000000000048f500                _Unwind_RaiseException
                0x000000000048f660                _Unwind_ForcedUnwind
                0x000000000048f740                _Unwind_Resume
                0x000000000048f800                _Unwind_Resume_or_Rethrow
                0x000000000048f8e0                _Unwind_DeleteException
                0x000000000048f900                _Unwind_Backtrace
 *fill*         0x000000000048f997        0x9 
 .text          0x000000000048f9a0     0x1c91 libgcc_eh.a(unwind-dw2-fde-dip.o)
                0x0000000000491050                __register_frame_info_bases
                0x00000000004910e0                __register_frame_info
                0x0000000000491170                __register_frame
                0x0000000000491220                __register_frame_info_table_bases
                0x00000000004912a0                __register_frame_info_table
                0x00000000004912b0                __register_frame_table
                0x00000000004912d0                __deregister_frame_info_bases
                0x0000000000491400                __deregister_frame_info
                0x0000000000491410                __deregister_frame
                0x0000000000491440                _Unwind_Find_FDE
 *fill*         0x0000000000491631        0xf 
 .text          0x0000000000491640      0x428 libgcc_eh.a(unwind-c.o)
                0x0000000000491810                __gcc_personality_v0
 *fill*         0x0000000000491a68        0x8 
 .text          0x0000000000491a70       0xf4 libc.a(dl-iteratephdr.o)
                0x0000000000491a70                dl_iterate_phdr
                0x0000000000491a70                __dl_iterate_phdr
 .text          0x0000000000491b64        0x0 crtend.o
 .text          0x0000000000491b64        0x0 crtn.o
 *(.gnu.warning)

__libc_freeres_fn
                0x0000000000491b70     0x1c07
                0x0000000000491b70                PROVIDE (__start___libc_freeres_fn, .)
 __libc_freeres_fn
                0x0000000000491b70       0xa9 libc.a(dcigettext.o)
 *fill*         0x0000000000491c19        0x7 
 __libc_freeres_fn
                0x0000000000491c20       0x49 libc.a(finddomain.o)
                0x0000000000491c20                _nl_finddomain_subfreeres
 *fill*         0x0000000000491c69        0x7 
 __libc_freeres_fn
                0x0000000000491c70       0xd7 libc.a(loadmsgcat.o)
                0x0000000000491c70                _nl_unload_domain
 *fill*         0x0000000000491d47        0x9 
 __libc_freeres_fn
                0x0000000000491d50       0x61 libc.a(genops.o)
 *fill*         0x0000000000491db1        0xf 
 __libc_freeres_fn
                0x0000000000491dc0       0xbe libc.a(register-atfork.o)
 *fill*         0x0000000000491e7e        0x2 
 __libc_freeres_fn
                0x0000000000491e80      0x97f libc.a(gconv_db.o)
 *fill*         0x00000000004927ff        0x1 
 __libc_freeres_fn
                0x0000000000492800       0x22 libc.a(gconv_conf.o)
 *fill*         0x0000000000492822        0xe 
 __libc_freeres_fn
                0x0000000000492830       0x32 libc.a(gconv_cache.o)
 *fill*         0x0000000000492862        0xe 
 __libc_freeres_fn
                0x0000000000492870       0x45 libc.a(gconv_dl.o)
 *fill*         0x00000000004928b5        0xb 
 __libc_freeres_fn
                0x00000000004928c0      0x7c3 libc.a(setlocale.o)
                0x00000000004928c0                _nl_locale_subfreeres
 *fill*         0x0000000000493083        0xd 
 __libc_freeres_fn
                0x0000000000493090      0x101 libc.a(loadarchive.o)
                0x0000000000493090                _nl_archive_subfreeres
 *fill*         0x0000000000493191        0xf 
 __libc_freeres_fn
                0x00000000004931a0       0x2a libc.a(setenv.o)
 *fill*         0x00000000004931ca        0x6 
 __libc_freeres_fn
                0x00000000004931d0       0x5c libc.a(reg-modifier.o)
 *fill*         0x000000000049322c        0x4 
 __libc_freeres_fn
                0x0000000000493230       0x40 libc.a(tzset.o)
 __libc_freeres_fn
                0x0000000000493270      0x507 libc.a(dl-libc.o)
                0x0000000000493777                PROVIDE (__stop___libc_freeres_fn, .)

__libc_thread_freeres_fn
                0x0000000000493780       0xa8
                0x0000000000493780                PROVIDE (__start___libc_thread_freeres_fn, .)
 __libc_thread_freeres_fn
                0x0000000000493780       0xa8 libc.a(malloc.o)
                0x0000000000493828                PROVIDE (__stop___libc_thread_freeres_fn, .)

.fini           0x0000000000493828        0x9
 *(SORT(.fini))
 .fini          0x0000000000493828        0x4 crti.o
                0x0000000000493828                _fini
 .fini          0x000000000049382c        0x5 crtn.o
                0x0000000000493831                PROVIDE (__etext, .)
                0x0000000000493831                PROVIDE (_etext, .)
                0x0000000000493831                PROVIDE (etext, .)

.rodata         0x0000000000493840    0x1eb48
 *(.rodata .rodata.* .gnu.linkonce.r.*)
 .rodata.cst4   0x0000000000493840        0x4 crt1.o
                0x0000000000493840                _IO_stdin_used
 .rodata        0x0000000000493844        0xe hello.o
 .rodata.str1.1
                0x0000000000493852       0x31 libc.a(libc-start.o)
 *fill*         0x0000000000493883        0x5 
 .rodata.str1.8
                0x0000000000493888       0x7f libc.a(libc-start.o)
 *fill*         0x0000000000493907        0x9 
 .rodata.str1.16
                0x0000000000493910       0x12 libc.a(libc-start.o)
 .rodata.str1.1
                0x0000000000493922       0x14 libc.a(check_fds.o)
 *fill*         0x0000000000493936        0x2 
 .rodata.str1.8
                0x0000000000493938       0x35 libc.a(libc-tls.o)
 .rodata.str1.1
                0x000000000049396d        0x3 libc.a(assert.o)
                                          0x7 (size before relaxing)
 .rodata.str1.8
                0x0000000000493970       0x29 libc.a(assert.o)
 *fill*         0x0000000000493999        0x7 
 .rodata.str1.16
                0x00000000004939a0       0x13 libc.a(assert.o)
 *fill*         0x00000000004939b3        0x5 
 .rodata        0x00000000004939b8       0x58 libc.a(dcigettext.o)
 .rodata.str1.1
                0x0000000000493a10       0x30 libc.a(dcigettext.o)
                                         0x31 (size before relaxing)
                0x0000000000493a31                _nl_POSIX_name
                0x0000000000493a37                _nl_default_default_domain
 .rodata.str1.16
                0x0000000000493a40       0x12 libc.a(dcigettext.o)
                0x0000000000493a40                _nl_default_dirname
 .rodata.str1.1
                0x0000000000493a52       0x14 libc.a(loadmsgcat.o)
                                         0x21 (size before relaxing)
 .rodata.str1.1
                0x0000000000493a66       0x16 libc.a(localealias.o)
 .rodata.str1.1
                0x0000000000493a7c       0x1b libc.a(l10nflist.o)
 *fill*         0x0000000000493a97        0x9 
 .rodata        0x0000000000493aa0      0x647 libc.a(plural.o)
 .rodata.str1.1
                0x00000000004940e7       0x12 libc.a(plural-exp.o)
 *fill*         0x00000000004940f9        0x7 
 .rodata        0x0000000000494100       0x60 libc.a(plural-exp.o)
                0x0000000000494100                __gettext_germanic_plural
 .rodata.str1.1
                0x0000000000494160       0x2b libc.a(cxa_atexit.o)
 .rodata.str1.1
                0x000000000049418b       0x30 libc.a(fxprintf.o)
 .rodata.str1.1
                0x00000000004941bb       0x68 libc.a(libc_fatal.o)
                                         0x6b (size before relaxing)
 .rodata.str1.1
                0x0000000000494223       0x27 libc.a(wfileops.o)
 *fill*         0x000000000049424a        0x6 
 .rodata.str1.16
                0x0000000000494250       0x14 libc.a(wfileops.o)
 *fill*         0x0000000000494264       0x1c 
 .rodata        0x0000000000494280      0x228 libc.a(wfileops.o)
                0x0000000000494280                _IO_wfile_jumps_maybe_mmap
                0x0000000000494340                _IO_wfile_jumps_mmap
                0x0000000000494400                _IO_wfile_jumps
 .rodata.str1.1
                0x00000000004944a8       0x32 libc.a(fileops.o)
                                         0x3c (size before relaxing)
 *fill*         0x00000000004944da        0x6 
 .rodata.str1.16
                0x00000000004944e0       0x13 libc.a(fileops.o)
 *fill*         0x00000000004944f3        0xd 
 .rodata        0x0000000000494500      0x228 libc.a(fileops.o)
                0x0000000000494500                _IO_file_jumps_maybe_mmap
                0x00000000004945c0                _IO_file_jumps_mmap
                0x0000000000494680                _IO_file_jumps
 .rodata.str1.1
                0x0000000000494728       0x1a libc.a(strops.o)
 *fill*         0x0000000000494742        0xe 
 .rodata.str1.16
                0x0000000000494750       0x10 libc.a(strops.o)
 .rodata        0x0000000000494760       0xa8 libc.a(strops.o)
                0x0000000000494760                _IO_str_jumps
 .rodata.str1.1
                0x0000000000494808      0x3ae libc.a(malloc.o)
                                        0x3bd (size before relaxing)
 *fill*         0x0000000000494bb6        0x2 
 .rodata.str1.8
                0x0000000000494bb8     0x1476 libc.a(malloc.o)
 *fill*         0x000000000049602e        0x2 
 .rodata        0x0000000000496030       0xa0 libc.a(malloc.o)
 .rodata.str1.16
                0x00000000004960d0       0x33 libc.a(malloc.o)
 *fill*         0x0000000000496103        0xd 
 .rodata.cst16  0x0000000000496110       0x10 libc.a(malloc.o)
 .rodata.sse4.2
                0x0000000000496120       0x40 libc.a(strcmp.o)
 .rodata        0x0000000000496160       0x40 libc.a(strcmp.o)
 .rodata        0x00000000004961a0       0x40 libc.a(strncmp.o)
 .rodata.cst16  0x00000000004961e0       0x40 libc.a(strcasecmp_l.o)
                                         0x90 (size before relaxing)
 .rodata.sse4.2
                0x0000000000496220       0x40 libc.a(strcasecmp_l.o)
 .rodata.avx    0x0000000000496260       0x40 libc.a(strcasecmp_l.o)
 .rodata        0x00000000004962a0       0x40 libc.a(strcasecmp_l.o)
 .rodata        0x00000000004962e0       0x80 libc.a(wordcopy.o)
 .rodata        0x0000000000496360       0x40 libc.a(strcmp-ssse3.o)
 .rodata.sse4.1
                0x00000000004963a0      0x140 libc.a(memcmp-sse4.o)
 .rodata.ssse3  0x00000000004964e0      0x1c0 libc.a(memmove-ssse3.o)
 .rodata.ssse3  0x00000000004966a0      0x500 libc.a(memmove-ssse3-back.o)
 .rodata.cst16  0x0000000000496ba0       0x30 libc.a(strcasecmp_l-ssse3.o)
 .rodata        0x0000000000496ba0       0x40 libc.a(strcasecmp_l-ssse3.o)
 .rodata        0x0000000000496be0       0x80 libc.a(strcpy-sse2-unaligned.o)
 .rodata        0x0000000000496c60       0x80 libc.a(stpcpy-sse2-unaligned.o)
 .rodata.str1.8
                0x0000000000496ce0       0x2b libc.a(cacheinfo.o)
 .rodata.str1.1
                0x0000000000496d0b       0x29 libc.a(cacheinfo.o)
 *fill*         0x0000000000496d34        0xc 
 .rodata        0x0000000000496d40      0x380 libc.a(cacheinfo.o)
 .rodata.str1.16
                0x00000000004970c0       0x11 libc.a(cacheinfo.o)
 .rodata.str1.1
                0x00000000004970d1       0x19 libc.a(wcsmbsload.o)
                                         0x2c (size before relaxing)
 *fill*         0x00000000004970ea       0x16 
 .rodata        0x0000000000497100      0x108 libc.a(wcsmbsload.o)
                0x0000000000497100                __wcsmbs_gconv_fcts_c
 .rodata.str1.1
                0x0000000000497208       0x6e libc.a(sysconf.o)
 *fill*         0x0000000000497276        0x2 
 .rodata        0x0000000000497278      0x7b8 libc.a(sysconf.o)
 .rodata.str1.1
                0x0000000000497a30        0xc libc.a(getcwd.o)
                                         0x10 (size before relaxing)
 *fill*         0x0000000000497a3c        0x4 
 .rodata.str1.8
                0x0000000000497a40       0x5e libc.a(getcwd.o)
 *fill*         0x0000000000497a9e        0x2 
 .rodata.str1.8
                0x0000000000497aa0       0x29 libc.a(getpagesize.o)
 .rodata.str1.1
                0x0000000000497ac9       0x20 libc.a(getpagesize.o)
 *fill*         0x0000000000497ae9        0x7 
 .rodata.str1.8
                0x0000000000497af0       0x4f libc.a(getsysstats.o)
 .rodata.str1.1
                0x0000000000497b3f       0x7f libc.a(getsysstats.o)
                                         0x87 (size before relaxing)
 .rodata.str1.1
                0x0000000000497bbe        0x1 libc.a(init-misc.o)
 .rodata.str1.1
                0x0000000000497bbe       0x19 libc.a(chk_fail.o)
 .rodata.str1.1
                0x0000000000497bd7       0x21 libc.a(fortify_fail.o)
                                         0x2b (size before relaxing)
 .rodata.str1.1
                0x0000000000497bf8        0xe libc.a(backtracesymsfd.o)
                                         0x13 (size before relaxing)
 *fill*         0x0000000000497c06       0x1a 
 .rodata        0x0000000000497c20      0x233 libc.a(dl-support.o)
 .rodata.str1.1
                0x0000000000497e53       0xe5 libc.a(dl-support.o)
                                         0xe6 (size before relaxing)
 .rodata.str1.8
                0x0000000000497f38       0x6c libc.a(dl-support.o)
 *fill*         0x0000000000497fa4        0xc 
 .rodata.str1.16
                0x0000000000497fb0       0x15 libc.a(dl-support.o)
 .rodata.str1.1
                0x0000000000497fc5       0x1b libc.a(dl-sysdep.o)
 .rodata.str1.1
                0x0000000000497fe0        0x7 libc.a(gconv_open.o)
                                         0x19 (size before relaxing)
 *fill*         0x0000000000497fe7        0x1 
 .rodata        0x0000000000497fe8        0x8 libc.a(gconv_open.o)
 .rodata.str1.1
                0x0000000000497ff0       0x2c libc.a(gconv.o)
 *fill*         0x000000000049801c        0x4 
 .rodata.str1.8
                0x0000000000498020       0x30 libc.a(gconv.o)
 .rodata.str1.1
                0x0000000000498050        0xb libc.a(gconv_db.o)
 *fill*         0x000000000049805b        0x5 
 .rodata.str1.8
                0x0000000000498060       0x4f libc.a(gconv_db.o)
 *fill*         0x00000000004980af        0x1 
 .rodata.str1.16
                0x00000000004980b0       0x25 libc.a(gconv_db.o)
 .rodata.str1.1
                0x00000000004980d5      0x171 libc.a(gconv_conf.o)
                                        0x17e (size before relaxing)
 *fill*         0x0000000000498246        0xa 
 .rodata.str1.16
                0x0000000000498250       0x11 libc.a(gconv_conf.o)
 *fill*         0x0000000000498261       0x1f 
 .rodata        0x0000000000498280      0x3e7 libc.a(gconv_conf.o)
 *fill*         0x0000000000498667        0x9 
 .rodata.cst16  0x0000000000498670       0x10 libc.a(gconv_conf.o)
 .rodata.str1.1
                0x0000000000498680       0x10 libc.a(gconv_builtin.o)
                                         0xe4 (size before relaxing)
 .rodata.str1.8
                0x0000000000498690       0x25 libc.a(gconv_builtin.o)
 *fill*         0x00000000004986b5        0xb 
 .rodata.str1.16
                0x00000000004986c0       0x1a libc.a(gconv_builtin.o)
 *fill*         0x00000000004986da        0x6 
 .rodata        0x00000000004986e0      0x180 libc.a(gconv_builtin.o)
 .rodata.str1.1
                0x0000000000498860       0xcc libc.a(gconv_simple.o)
 *fill*         0x000000000049892c        0x4 
 .rodata.str1.8
                0x0000000000498930       0xcf libc.a(gconv_simple.o)
 *fill*         0x00000000004989ff        0x1 
 .rodata.str1.32
                0x0000000000498a00      0x2c0 libc.a(gconv_simple.o)
 .rodata.str1.16
                0x0000000000498cc0       0xb5 libc.a(gconv_simple.o)
 .rodata        0x0000000000498d75        0x5 libc.a(gconv_simple.o)
 .rodata.str1.1
                0x0000000000498d7a       0x6a libc.a(gconv_trans.o)
                                         0x6e (size before relaxing)
 *fill*         0x0000000000498de4        0xc 
 .rodata.str1.16
                0x0000000000498df0       0x16 libc.a(gconv_trans.o)
 .rodata.str1.1
                0x0000000000498e06        0xb libc.a(gconv_cache.o)
                                         0x14 (size before relaxing)
 *fill*         0x0000000000498e11        0x7 
 .rodata.str1.8
                0x0000000000498e18       0x34 libc.a(gconv_cache.o)
 .rodata.str1.1
                0x0000000000498e4c       0x4e libc.a(gconv_dl.o)
                                         0x54 (size before relaxing)
 *fill*         0x0000000000498e9a        0x6 
 .rodata.str1.16
                0x0000000000498ea0       0x33 libc.a(gconv_dl.o)
 *fill*         0x0000000000498ed3        0xd 
 .rodata        0x0000000000498ee0       0xa9 libc.a(catnames.o)
                0x0000000000498ee0                _nl_category_name_sizes
                0x0000000000498eed                _nl_category_name_idxs
                0x0000000000498f00                _nl_category_names
 .rodata.str1.1
                0x0000000000498f89        0x8 libc.a(setlocale.o)
 *fill*         0x0000000000498f91        0xf 
 .rodata        0x0000000000498fa0       0xe8 libc.a(setlocale.o)
 .rodata.str1.1
                0x0000000000499088       0x37 libc.a(findlocale.o)
                                         0x40 (size before relaxing)
 *fill*         0x00000000004990bf        0x1 
 .rodata.str1.16
                0x00000000004990c0       0x20 libc.a(findlocale.o)
                0x00000000004990d0                _nl_default_locale_path
 .rodata        0x00000000004990e0       0xa8 libc.a(findlocale.o)
                0x0000000000499120                _nl_C
 .rodata.str1.1
                0x0000000000499188       0x1b libc.a(loadlocale.o)
 *fill*         0x00000000004991a3        0x5 
 .rodata.str1.8
                0x00000000004991a8      0x3c1 libc.a(loadlocale.o)
 *fill*         0x0000000000499569       0x17 
 .rodata        0x0000000000499580      0x708 libc.a(loadlocale.o)
 *fill*         0x0000000000499c88        0x8 
 .rodata.str1.16
                0x0000000000499c90       0x17 libc.a(loadlocale.o)
 .rodata.str1.1
                0x0000000000499ca7       0x25 libc.a(loadarchive.o)
 *fill*         0x0000000000499ccc        0x4 
 .rodata.str1.8
                0x0000000000499cd0       0x24 libc.a(loadarchive.o)
 *fill*         0x0000000000499cf4        0xc 
 .rodata.str1.16
                0x0000000000499d00       0x5f libc.a(loadarchive.o)
 *fill*         0x0000000000499d5f        0x1 
 .rodata        0x0000000000499d60     0xbcac libc.a(C-ctype.o)
                0x0000000000499dc0                _nl_C_LC_CTYPE
                0x000000000049a0c0                _nl_C_LC_CTYPE_width
                0x000000000049a120                _nl_C_LC_CTYPE_map_tolower
                0x000000000049a1e0                _nl_C_LC_CTYPE_map_toupper
                0x000000000049a2a0                _nl_C_LC_CTYPE_class_alnum
                0x000000000049a300                _nl_C_LC_CTYPE_class_punct
                0x000000000049a360                _nl_C_LC_CTYPE_class_cntrl
                0x000000000049a3c0                _nl_C_LC_CTYPE_class_blank
                0x000000000049a420                _nl_C_LC_CTYPE_class_graph
                0x000000000049a480                _nl_C_LC_CTYPE_class_print
                0x000000000049a4e0                _nl_C_LC_CTYPE_class_space
                0x000000000049a540                _nl_C_LC_CTYPE_class_xdigit
                0x000000000049a5a0                _nl_C_LC_CTYPE_class_digit
                0x000000000049a600                _nl_C_LC_CTYPE_class_alpha
                0x000000000049a660                _nl_C_LC_CTYPE_class_lower
                0x000000000049a6c0                _nl_C_LC_CTYPE_class_upper
                0x000000000049a720                _nl_C_LC_CTYPE_tolower
                0x000000000049ad20                _nl_C_LC_CTYPE_toupper
                0x000000000049b320                _nl_C_LC_CTYPE_class32
                0x000000000049b720                _nl_C_LC_CTYPE_class
 .rodata.str1.1
                0x00000000004a5a0c        0x6 libc.a(C-ctype.o)
                                         0x14 (size before relaxing)
 *fill*         0x00000000004a5a12        0x2 
 .rodata.str4.4
                0x00000000004a5a14       0x50 libc.a(C-ctype.o)
                                         0x58 (size before relaxing)
 .rodata.str1.1
                0x00000000004a5a64        0x5 libc.a(SYS_libc.o)
                0x00000000004a5a64                _libc_intl_domainname
 .rodata.str1.1
                0x00000000004a5a69        0xf libc.a(C_name.o)
                                         0x17 (size before relaxing)
                0x00000000004a5a69                _nl_C_codeset
 *fill*         0x00000000004a5a78        0x8 
 .rodata        0x00000000004a5a80       0xe8 libc.a(xlocale.o)
                0x00000000004a5a80                _nl_C_locobj
 .rodata.str1.1
                0x00000000004a5b68        0xc libc.a(C-messages.o)
                                          0xd (size before relaxing)
 *fill*         0x00000000004a5b74        0xc 
 .rodata        0x00000000004a5b80       0x68 libc.a(C-messages.o)
                0x00000000004a5b80                _nl_C_LC_MESSAGES
 .rodata.str1.1
                0x00000000004a5be8        0x4 libc.a(C-monetary.o)
                                          0x5 (size before relaxing)
 *fill*         0x00000000004a5bec       0x14 
 .rodata        0x00000000004a5c00      0x1b8 libc.a(C-monetary.o)
                0x00000000004a5c00                _nl_C_LC_MONETARY
 .rodata.str1.1
                0x00000000004a5db8        0x3 libc.a(C-numeric.o)
 *fill*         0x00000000004a5db8        0x8 
 .rodata        0x00000000004a5dc0       0x70 libc.a(C-numeric.o)
                0x00000000004a5dc0                _nl_C_LC_NUMERIC
 *fill*         0x00000000004a5e30       0x10 
 .rodata        0x00000000004a5e40       0x58 libc.a(C-paper.o)
                0x00000000004a5e40                _nl_C_LC_PAPER
 .rodata.str1.1
                0x00000000004a5e98        0xf libc.a(C-name.o)
                                         0x10 (size before relaxing)
 *fill*         0x00000000004a5ea7       0x19 
 .rodata        0x00000000004a5ec0       0x78 libc.a(C-name.o)
                0x00000000004a5ec0                _nl_C_LC_NAME
 .rodata.str1.8
                0x00000000004a5f38       0x2c libc.a(C-address.o)
 .rodata.str1.1
                0x00000000004a5f64        0x1 libc.a(C-address.o)
 *fill*         0x00000000004a5f64       0x1c 
 .rodata        0x00000000004a5f80       0xa8 libc.a(C-address.o)
                0x00000000004a5f80                _nl_C_LC_ADDRESS
 .rodata.str1.1
                0x00000000004a6028        0xa libc.a(C-telephone.o)
                                          0xb (size before relaxing)
 *fill*         0x00000000004a6032        0xe 
 .rodata        0x00000000004a6040       0x68 libc.a(C-telephone.o)
                0x00000000004a6040                _nl_C_LC_TELEPHONE
 .rodata.str1.1
                0x00000000004a60a8        0x2 libc.a(C-measurement.o)
 *fill*         0x00000000004a60aa       0x16 
 .rodata        0x00000000004a60c0       0x50 libc.a(C-measurement.o)
                0x00000000004a60c0                _nl_C_LC_MEASUREMENT
 .rodata.str1.1
                0x00000000004a6110       0x67 libc.a(C-identification.o)
                                         0x68 (size before relaxing)
 *fill*         0x00000000004a6177        0x1 
 .rodata.str1.8
                0x00000000004a6178       0x6c libc.a(C-identification.o)
 *fill*         0x00000000004a61e4       0x1c 
 .rodata        0x00000000004a6200      0x180 libc.a(C-identification.o)
                0x00000000004a62c0                _nl_C_LC_IDENTIFICATION
 .rodata        0x00000000004a6380      0x600 libc.a(C-collate.o)
                0x00000000004a6380                _nl_C_LC_COLLATE
 .rodata        0x00000000004a6980      0x158 libc.a(strtol_l.o)
                0x00000000004a6980                __strtol_ul_rem_tab
                0x00000000004a69c0                __strtol_ul_max_tab
 *fill*         0x00000000004a6ad8        0x8 
 .rodata        0x00000000004a6ae0       0x24 libc.a(itoa-digits.o)
                0x00000000004a6ae0                _itoa_lower_digits
 *fill*         0x00000000004a6b04       0x1c 
 .rodata        0x00000000004a6b20       0x24 libc.a(itoa-udigits.o)
                0x00000000004a6b20                _itoa_upper_digits
 .rodata.str1.1
                0x00000000004a6b44       0x4e libc.a(vfprintf.o)
                                         0x4f (size before relaxing)
 *fill*         0x00000000004a6b92        0x6 
 .rodata.str1.8
                0x00000000004a6b98       0xaa libc.a(vfprintf.o)
 *fill*         0x00000000004a6c42       0x1e 
 .rodata        0x00000000004a6c60      0x808 libc.a(vfprintf.o)
 *fill*         0x00000000004a7468        0x8 
 .rodata.str1.16
                0x00000000004a7470       0x16 libc.a(vfprintf.o)
 .rodata.str1.1
                0x00000000004a7486       0x10 libc.a(printf_fp.o)
                                         0x1c (size before relaxing)
 *fill*         0x00000000004a7496        0x2 
 .rodata.str4.4
                0x00000000004a7498       0x5c libc.a(printf_fp.o)
 .rodata.str4.4
                0x00000000004a74f4       0x40 libc.a(printf_fphex.o)
 .rodata.str1.1
                0x00000000004a74f4        0xf libc.a(printf_fphex.o)
                                         0x1f (size before relaxing)
 *fill*         0x00000000004a7503        0x5 
 .rodata.str1.8
                0x00000000004a7508       0x47 libc.a(printf_fphex.o)
 .rodata.str1.1
                0x00000000004a754f        0xe libc.a(vfwprintf.o)
                                         0x34 (size before relaxing)
 *fill*         0x00000000004a755d        0x3 
 .rodata.str4.4
                0x00000000004a7560       0x18 libc.a(vfwprintf.o)
                                         0x1c (size before relaxing)
 .rodata.str1.8
                0x00000000004a7578       0xaa libc.a(vfwprintf.o)
 *fill*         0x00000000004a7578        0x8 
 .rodata        0x00000000004a7580      0x808 libc.a(vfwprintf.o)
 *fill*         0x00000000004a7d88        0x8 
 .rodata.str4.16
                0x00000000004a7d90       0x20 libc.a(vfwprintf.o)
                                         0x1c (size before relaxing)
 .rodata        0x00000000004a7db0      0x2c8 libc.a(printf-parsemb.o)
 .rodata        0x00000000004a8078      0x488 libc.a(printf-parsewc.o)
 .rodata.cst16  0x00000000004a8500       0x10 libc.a(iopadn.o)
                                         0x20 (size before relaxing)
 .rodata.str1.1
                0x00000000004a8510       0x14 libc.a(iofwide.o)
                                         0x40 (size before relaxing)
 *fill*         0x00000000004a8524       0x1c 
 .rodata        0x00000000004a8540      0x110 libc.a(iofwide.o)
                0x00000000004a8540                __libio_translit
                0x00000000004a8580                __libio_codecvt
 *fill*         0x00000000004a8650       0x10 
 .rodata        0x00000000004a8660       0x80 libc.a(iowpadn.o)
 .rodata.str1.1
                0x00000000004a86e0        0xf libc.a(_strerror.o)
 .rodata.str1.1
                0x00000000004a86ef       0x14 libc.a(wcrtomb.o)
 *fill*         0x00000000004a8703        0x5 
 .rodata.str1.8
                0x00000000004a8708       0xa0 libc.a(wcrtomb.o)
 .rodata.str1.1
                0x00000000004a87a8       0x32 libc.a(wcsrtombs.o)
 *fill*         0x00000000004a87da        0x6 
 .rodata.str1.8
                0x00000000004a87e0       0x48 libc.a(wcsrtombs.o)
                                         0xe8 (size before relaxing)
 .rodata.str1.1
                0x00000000004a8828       0x27 libc.a(mbsrtowcs_l.o)
 *fill*         0x00000000004a884f        0x1 
 .rodata.str1.8
                0x00000000004a8850       0x29 libc.a(mbsrtowcs_l.o)
                                         0xf0 (size before relaxing)
 .rodata.str1.1
                0x00000000004a8879       0x51 libc.a(tzset.o)
                                         0x52 (size before relaxing)
                0x00000000004a88c4                _nl_C_name
 .rodata.str1.1
                0x00000000004a88ca       0x55 libc.a(tzfile.o)
                                         0x68 (size before relaxing)
 *fill*         0x00000000004a891f        0x1 
 .rodata.str1.8
                0x00000000004a8920      0xb08 libc.a(tzfile.o)
 *fill*         0x00000000004a9428        0x8 
 .rodata.str1.16
                0x00000000004a9430       0x34 libc.a(tzfile.o)
 *fill*         0x00000000004a9464        0x4 
 .rodata.str1.8
                0x00000000004a9468      0x46a libc.a(fork.o)
 .rodata.str1.1
                0x00000000004a98d2        0xc libc.a(fork.o)
 .rodata.str1.1
                0x00000000004a98de       0x14 libc.a(readonly-area.o)
 .rodata.str1.1
                0x00000000004a98de      0x25e libc.a(dl-load.o)
                                        0x2a5 (size before relaxing)
 *fill*         0x00000000004a9b3c        0x4 
 .rodata.str1.8
                0x00000000004a9b40      0x4c7 libc.a(dl-load.o)
                                        0x56f (size before relaxing)
 *fill*         0x00000000004aa007        0x9 
 .rodata.str1.16
                0x00000000004aa010       0x5c libc.a(dl-load.o)
                                         0x7c (size before relaxing)
 *fill*         0x00000000004aa06c        0x4 
 .rodata.cst16  0x00000000004aa070       0x20 libc.a(dl-load.o)
 *fill*         0x00000000004aa090       0x10 
 .rodata        0x00000000004aa0a0       0x82 libc.a(dl-load.o)
 *fill*         0x00000000004aa122        0x2 
 .rodata.cst4   0x00000000004aa124        0x4 libc.a(dl-load.o)
 .rodata.str1.1
                0x00000000004aa128       0xd4 libc.a(dl-lookup.o)
                                         0xf5 (size before relaxing)
 *fill*         0x00000000004aa1fc        0x4 
 .rodata.str1.8
                0x00000000004aa200      0x17d libc.a(dl-lookup.o)
 *fill*         0x00000000004aa37d        0x3 
 .rodata.str1.16
                0x00000000004aa380       0x33 libc.a(dl-lookup.o)
 *fill*         0x00000000004aa3b3        0x5 
 .rodata.str1.8
                0x00000000004aa3b8      0x224 libc.a(dl-reloc.o)
 .rodata.str1.1
                0x00000000004aa5dc       0x48 libc.a(dl-reloc.o)
                                         0x58 (size before relaxing)
 *fill*         0x00000000004aa624       0x1c 
 .rodata        0x00000000004aa640      0x2ac libc.a(dl-reloc.o)
 *fill*         0x00000000004aa8ec       0x14 
 .rodata.str1.32
                0x00000000004aa900       0x40 libc.a(dl-reloc.o)
                                         0x3b (size before relaxing)
 .rodata.str1.16
                0x00000000004aa940       0x3d libc.a(dl-reloc.o)
 .rodata.str1.1
                0x00000000004aa97d       0x4e libc.a(dl-hwcaps.o)
                                         0x4f (size before relaxing)
 *fill*         0x00000000004aa9cb        0x5 
 .rodata.str1.16
                0x00000000004aa9d0       0x15 libc.a(dl-hwcaps.o)
 .rodata.str1.1
                0x00000000004aa9e5       0x60 libc.a(dl-error.o)
                                         0x7b (size before relaxing)
 *fill*         0x00000000004aaa45        0x3 
 .rodata.str1.8
                0x00000000004aaa48       0x25 libc.a(dl-error.o)
 .rodata.str1.1
                0x00000000004aaa6d       0x31 libc.a(dl-misc.o)
 *fill*         0x00000000004aaa9e        0x2 
 .rodata.str1.8
                0x00000000004aaaa0       0x20 libc.a(dl-misc.o)
 .rodata        0x00000000004aaac0       0x78 libc.a(dl-misc.o)
 *fill*         0x00000000004aab38        0x8 
 .rodata.str1.16
                0x00000000004aab40       0x13 libc.a(dl-misc.o)
 .rodata.str1.1
                0x00000000004aab53       0x46 libc.a(dl-tls.o)
 *fill*         0x00000000004aab99        0x7 
 .rodata.str1.8
                0x00000000004aaba0       0xe2 libc.a(dl-tls.o)
 *fill*         0x00000000004aac82        0xe 
 .rodata.str1.16
                0x00000000004aac90       0x53 libc.a(dl-tls.o)
 .rodata.str1.1
                0x00000000004aace3       0x30 libc.a(dl-origin.o)
 *fill*         0x00000000004aad13        0x5 
 .rodata.str1.8
                0x00000000004aad18       0x27 libc.a(dl-origin.o)
 .rodata.str1.1
                0x00000000004aad3f       0xcf libc.a(dl-open.o)
                                        0x102 (size before relaxing)
 *fill*         0x00000000004aae0e        0x2 
 .rodata.str1.8
                0x00000000004aae10      0x18c libc.a(dl-open.o)
 *fill*         0x00000000004aaf9c        0x4 
 .rodata.str1.16
                0x00000000004aafa0       0x18 libc.a(dl-open.o)
 .rodata.str1.1
                0x00000000004aafb8       0xe8 libc.a(dl-close.o)
                                        0x101 (size before relaxing)
 .rodata.str1.8
                0x00000000004ab0a0      0x172 libc.a(dl-close.o)
 *fill*         0x00000000004ab212        0xe 
 .rodata.str1.16
                0x00000000004ab220       0x21 libc.a(dl-close.o)
 .rodata.str1.1
                0x00000000004ab241       0x64 libc.a(dl-cache.o)
                                         0x89 (size before relaxing)
 *fill*         0x00000000004ab2a5        0xb 
 .rodata.str1.16
                0x00000000004ab2b0       0x16 libc.a(dl-cache.o)
 .rodata.str1.1
                0x00000000004ab2c6       0x1c libc.a(dl-libc.o)
 .rodata.str1.1
                0x00000000004ab2e2      0x12e libc.a(C-time.o)
                                        0x131 (size before relaxing)
 .rodata.str4.4
                0x00000000004ab410      0x210 libc.a(C-time.o)
                                        0x214 (size before relaxing)
 .rodata.str4.8
                0x00000000004ab620      0x2b0 libc.a(C-time.o)
 *fill*         0x00000000004ab8d0       0x10 
 .rodata        0x00000000004ab8e0      0x3b8 libc.a(C-time.o)
                0x00000000004ab8e0                _nl_C_LC_TIME
 *fill*         0x00000000004abc98        0x8 
 .rodata        0x00000000004abca0     0x3768 libc.a(fpioconst.o)
                0x00000000004abca0                _fpioconst_pow10
                0x00000000004abe20                __tens
 *fill*         0x00000000004af408       0x18 
 .rodata        0x00000000004af420      0x130 libc.a(itowa-digits.o)
                0x00000000004af420                _itowa_upper_digits
                0x00000000004af4c0                _itowa_lower_digits
 .rodata.str1.1
                0x00000000004af550       0x15 libc.a(vfscanf.o)
 *fill*         0x00000000004af565        0x3 
 .rodata.str1.8
                0x00000000004af568       0x63 libc.a(vfscanf.o)
 *fill*         0x00000000004af5cb        0x5 
 .rodata        0x00000000004af5d0      0x418 libc.a(vfscanf.o)
 *fill*         0x00000000004af9e8        0x8 
 .rodata.str1.16
                0x00000000004af9f0       0x15 libc.a(vfscanf.o)
 *fill*         0x00000000004afa05        0xb 
 .rodata.cst16  0x00000000004afa10       0x20 libc.a(vfscanf.o)
 .rodata.str1.1
                0x00000000004afa30      0x8b2 libc.a(errlist.o)
 *fill*         0x00000000004b02e2        0x6 
 .rodata.str1.8
                0x00000000004b02e8      0x3bf libc.a(errlist.o)
 *fill*         0x00000000004b06a7       0x19 
 .rodata        0x00000000004b06c0      0x438 libc.a(errlist.o)
                0x00000000004b06c0                _sys_errlist
                0x00000000004b06c0                sys_errlist
                0x00000000004b06c0                _sys_errlist_internal
                0x00000000004b06c0                __sys_errlist_internal
 .rodata.cst4   0x00000000004b0af8        0x4 libc.a(errlist.o)
                0x00000000004b0af8                sys_nerr
                0x00000000004b0af8                __sys_nerr_internal
                0x00000000004b0af8                _sys_nerr
                0x00000000004b0af8                _sys_nerr_internal
 .rodata.str1.1
                0x00000000004b0afc       0x1e libc.a(sdlerror.o)
                                         0x30 (size before relaxing)
 .rodata.str1.1
                0x00000000004b0b1a       0x1b libc.a(sdlinfo.o)
 *fill*         0x00000000004b0b35        0x3 
 .rodata        0x00000000004b0b38       0x58 libc.a(sdlinfo.o)
 .rodata.str1.1
                0x00000000004b0b90       0x12 libc.a(sdlmopen.o)
                                         0x13 (size before relaxing)
 .rodata.str1.1
                0x00000000004b0ba2        0xe libc.a(strerror.o)
 .rodata.str1.1
                0x00000000004b0bb0       0x14 libc.a(mbrtowc.o)
                                         0x15 (size before relaxing)
 .rodata.str1.8
                0x00000000004b0bc4       0xc0 libc.a(mbrtowc.o)
 *fill*         0x00000000004b0bc4       0x1c 
 .rodata        0x00000000004b0be0       0x34 libc.a(mktime.o)
                0x00000000004b0be0                __mon_yday
 .rodata.str1.1
                0x00000000004b0c14       0x17 libc.a(dl-deps.o)
                                         0x42 (size before relaxing)
 *fill*         0x00000000004b0c2b        0x5 
 .rodata.str1.8
                0x00000000004b0c30      0x1c3 libc.a(dl-deps.o)
 *fill*         0x00000000004b0df3        0xd 
 .rodata.str1.16
                0x00000000004b0e00       0x14 libc.a(dl-deps.o)
 .rodata.str1.1
                0x00000000004b0e14       0x1e libc.a(dl-runtime.o)
 *fill*         0x00000000004b0e32        0x6 
 .rodata.str1.8
                0x00000000004b0e38       0x24 libc.a(dl-runtime.o)
 *fill*         0x00000000004b0e5c        0x4 
 .rodata.str1.16
                0x00000000004b0e60       0x12 libc.a(dl-runtime.o)
 .rodata.str1.1
                0x00000000004b0e72       0x2b libc.a(dl-init.o)
                                         0x3a (size before relaxing)
 .rodata.str1.1
                0x00000000004b0e9d       0x37 libc.a(dl-fini.o)
                                         0x60 (size before relaxing)
 *fill*         0x00000000004b0ed4        0x4 
 .rodata.str1.8
                0x00000000004b0ed8       0x2c libc.a(dl-fini.o)
 .rodata.str1.1
                0x00000000004b0f04       0xb9 libc.a(dl-version.o)
                                         0xd4 (size before relaxing)
 *fill*         0x00000000004b0fbd        0x3 
 .rodata.str1.8
                0x00000000004b0fc0       0xa0 libc.a(dl-version.o)
 .rodata.str1.16
                0x00000000004b1060       0x17 libc.a(dl-version.o)
 .rodata.str1.1
                0x00000000004b1077       0x69 libc.a(dl-profile.o)
 .rodata.str1.8
                0x00000000004b10e0       0x63 libc.a(dl-profile.o)
 .rodata.str1.1
                0x00000000004b1143       0xd2 libc.a(strtof_l.o)
                                         0xe5 (size before relaxing)
 *fill*         0x00000000004b1215        0x3 
 .rodata.str1.8
                0x00000000004b1218      0x408 libc.a(strtof_l.o)
 .rodata        0x00000000004b1620       0x40 libc.a(strtof_l.o)
 .rodata.str1.16
                0x00000000004b1660       0x16 libc.a(strtof_l.o)
 *fill*         0x00000000004b1676        0x2 
 .rodata.cst4   0x00000000004b1678       0x20 libc.a(strtof_l.o)
 .rodata.str1.1
                0x00000000004b1698       0xe5 libc.a(strtod_l.o)
 .rodata.str1.8
                0x00000000004b1698      0x1ca libc.a(strtod_l.o)
                                        0x412 (size before relaxing)
 *fill*         0x00000000004b1862       0x1e 
 .rodata        0x00000000004b1880       0x40 libc.a(strtod_l.o)
 .rodata.str1.16
                0x00000000004b18c0       0x16 libc.a(strtod_l.o)
 *fill*         0x00000000004b18d6        0x2 
 .rodata.cst8   0x00000000004b18d8       0x40 libc.a(strtod_l.o)
 .rodata.str1.1
                0x00000000004b1918       0x15 libc.a(strtold_l.o)
                                         0xef (size before relaxing)
 *fill*         0x00000000004b192d        0x3 
 .rodata.str1.8
                0x00000000004b1930      0x1a3 libc.a(strtold_l.o)
                                        0x3eb (size before relaxing)
 *fill*         0x00000000004b1ad3        0xd 
 .rodata        0x00000000004b1ae0       0x40 libc.a(strtold_l.o)
 .rodata.str1.16
                0x00000000004b1b20       0x20 libc.a(strtold_l.o)
                                         0x17 (size before relaxing)
 .rodata.cst16  0x00000000004b1b40       0x40 libc.a(strtold_l.o)
 .rodata.cst4   0x00000000004b1b80        0xc libc.a(strtold_l.o)
 .rodata        0x00000000004b1b80       0xa0 libc.a(tens_in_limb.o)
                0x00000000004b1b80                _tens_in_limb
 .rodata.str1.1
                0x00000000004b1c20       0x17 libc.a(sdlopen.o)
                                         0x18 (size before relaxing)
 .rodata.cst16  0x00000000004b1c37       0x90 libc.a(strncase_l.o)
 *fill*         0x00000000004b1c37        0x1 
 .rodata.sse4.2
                0x00000000004b1c38       0x40 libc.a(strncase_l.o)
 .rodata.avx    0x00000000004b1c78       0x40 libc.a(strncase_l.o)
 .rodata        0x00000000004b1cb8       0x40 libc.a(strncase_l.o)
 .rodata.cst16  0x00000000004b1cf8       0x30 libc.a(strncase_l-ssse3.o)
 .rodata        0x00000000004b1cf8       0x40 libc.a(strncase_l-ssse3.o)
 .rodata.str1.8
                0x00000000004b1d38       0x30 libc.a(dl-sym.o)
                                         0x2e (size before relaxing)
 .rodata        0x00000000004b1d68      0x5b8 libgcc_eh.a(unwind-dw2.o)
 .rodata        0x00000000004b2320       0x34 libgcc_eh.a(unwind-dw2-fde-dip.o)
 .rodata        0x00000000004b2354       0x34 libgcc_eh.a(unwind-c.o)

__libc_subfreeres
                0x00000000004b2388       0x58
                0x00000000004b2388                PROVIDE (__start___libc_subfreeres, .)
 __libc_subfreeres
                0x00000000004b2388        0x8 libc.a(dcigettext.o)
 __libc_subfreeres
                0x00000000004b2390        0x8 libc.a(genops.o)
 __libc_subfreeres
                0x00000000004b2398        0x8 libc.a(register-atfork.o)
 __libc_subfreeres
                0x00000000004b23a0        0x8 libc.a(gconv_db.o)
 __libc_subfreeres
                0x00000000004b23a8        0x8 libc.a(gconv_conf.o)
 __libc_subfreeres
                0x00000000004b23b0        0x8 libc.a(gconv_cache.o)
 __libc_subfreeres
                0x00000000004b23b8        0x8 libc.a(gconv_dl.o)
 __libc_subfreeres
                0x00000000004b23c0        0x8 libc.a(setenv.o)
 __libc_subfreeres
                0x00000000004b23c8        0x8 libc.a(reg-modifier.o)
 __libc_subfreeres
                0x00000000004b23d0        0x8 libc.a(tzset.o)
 __libc_subfreeres
                0x00000000004b23d8        0x8 libc.a(dl-libc.o)
                0x00000000004b23e0                PROVIDE (__stop___libc_subfreeres, .)

__libc_atexit   0x00000000004b23e0        0x8
                0x00000000004b23e0                PROVIDE (__start___libc_atexit, .)
 __libc_atexit  0x00000000004b23e0        0x8 libc.a(genops.o)
                0x00000000004b23e8                PROVIDE (__stop___libc_atexit, .)

__libc_thread_subfreeres
                0x00000000004b23e8        0x8
                0x00000000004b23e8                PROVIDE (__start___libc_thread_subfreeres, .)
 __libc_thread_subfreeres
                0x00000000004b23e8        0x8 libc.a(malloc.o)
                0x00000000004b23f0                PROVIDE (__stop___libc_thread_subfreeres, .)

.rodata1
 *(.rodata1)

.eh_frame_hdr
 *(.eh_frame_hdr)

.eh_frame       0x00000000004b23f0     0xcd8c
 *(.eh_frame)
 .eh_frame      0x00000000004b23f0       0x30 crt1.o
 .eh_frame      0x00000000004b2420        0x0 crtbeginT.o
 .eh_frame      0x00000000004b2420       0x38 hello.o
 .eh_frame      0x00000000004b2458       0x30 libc.a(libc-start.o)
                                         0x48 (size before relaxing)
 .eh_frame      0x00000000004b2488       0x58 libc.a(check_fds.o)
                                         0x68 (size before relaxing)
 .eh_frame      0x00000000004b24e0       0x80 libc.a(libc-tls.o)
                                         0x90 (size before relaxing)
 .eh_frame      0x00000000004b2560       0x60 libc.a(elf-init.o)
                                         0x70 (size before relaxing)
 .eh_frame      0x00000000004b25c0       0x58 libc.a(assert.o)
                                         0x70 (size before relaxing)
 .eh_frame      0x00000000004b2618       0x18 libc.a(dcgettext.o)
                                         0x30 (size before relaxing)
 .eh_frame      0x00000000004b2630      0x2e0 libc.a(dcigettext.o)
                                        0x368 (size before relaxing)
 .eh_frame      0x00000000004b2910       0x60 libc.a(finddomain.o)
                                         0x78 (size before relaxing)
 .eh_frame      0x00000000004b2970      0x100 libc.a(loadmsgcat.o)
                                        0x140 (size before relaxing)
 .eh_frame      0x00000000004b2a70      0x138 libc.a(localealias.o)
                                        0x178 (size before relaxing)
 .eh_frame      0x00000000004b2ba8       0xa0 libc.a(l10nflist.o)
                                         0xb8 (size before relaxing)
 .eh_frame      0x00000000004b2c48       0x48 libc.a(explodename.o)
                                         0x60 (size before relaxing)
 .eh_frame      0x00000000004b2c90       0xf0 libc.a(plural.o)
                                        0x108 (size before relaxing)
 .eh_frame      0x00000000004b2d80       0x40 libc.a(plural-exp.o)
                                         0x58 (size before relaxing)
 .eh_frame      0x00000000004b2dc0       0x18 libc.a(hash-string.o)
                                         0x30 (size before relaxing)
 .eh_frame      0x00000000004b2dd8       0x18 libc.a(bsd-_setjmp.o)
                                         0x30 (size before relaxing)
 .eh_frame      0x00000000004b2df0       0xf0 libc.a(abort.o)
                                        0x150 (size before relaxing)
 .eh_frame      0x00000000004b2ee0       0xa0 libc.a(msort.o)
                                         0xb0 (size before relaxing)
 .eh_frame      0x00000000004b2f80       0x50 libc.a(getenv.o)
                                         0x68 (size before relaxing)
 .eh_frame      0x00000000004b2fd0       0x40 libc.a(exit.o)
                                         0x58 (size before relaxing)
 .eh_frame      0x00000000004b3010      0x120 libc.a(cxa_atexit.o)
                                        0x160 (size before relaxing)
 .eh_frame      0x00000000004b3130       0x30 libc.a(strtoul.o)
                                         0x40 (size before relaxing)
 .eh_frame      0x00000000004b3160       0x80 libc.a(strtoul_l.o)
                                         0x90 (size before relaxing)
 .eh_frame      0x00000000004b31e0       0x68 libc.a(grouping.o)
                                         0x80 (size before relaxing)
 .eh_frame      0x00000000004b3248       0x20 libc.a(asprintf.o)
                                         0x38 (size before relaxing)
 .eh_frame      0x00000000004b3268       0x30 libc.a(fxprintf.o)
                                         0x48 (size before relaxing)
 .eh_frame      0x00000000004b3298      0x1c0 libc.a(iofclose.o)
                                        0x238 (size before relaxing)
 .eh_frame      0x00000000004b3458      0x100 libc.a(iofflush.o)
                                        0x168 (size before relaxing)
 .eh_frame      0x00000000004b3558       0x88 libc.a(iofopen.o)
                                         0x98 (size before relaxing)
 .eh_frame      0x00000000004b35e0      0x110 libc.a(ioputs.o)
                                        0x178 (size before relaxing)
 .eh_frame      0x00000000004b36f0       0x40 libc.a(vasprintf.o)
                                         0x58 (size before relaxing)
 .eh_frame      0x00000000004b3730       0x18 libc.a(fcloseall.o)
                                         0x30 (size before relaxing)
 .eh_frame      0x00000000004b3748       0xa8 libc.a(libc_fatal.o)
                                         0xb8 (size before relaxing)
 .eh_frame      0x00000000004b37f0       0x40 libc.a(iofgets_u.o)
                                         0x58 (size before relaxing)
 .eh_frame      0x00000000004b3830      0x380 libc.a(wfileops.o)
                                        0x3f0 (size before relaxing)
 .eh_frame      0x00000000004b3bb0      0x668 libc.a(fileops.o)
                                        0x6b0 (size before relaxing)
 .eh_frame      0x00000000004b4218      0xd90 libc.a(genops.o)
                                        0xee0 (size before relaxing)
 .eh_frame      0x00000000004b4fa8      0x248 libc.a(strops.o)
                                        0x240 (size before relaxing)
 .eh_frame      0x00000000004b51f0     0x1b98 libc.a(malloc.o)
                                       0x20f0 (size before relaxing)
 .eh_frame      0x00000000004b6d88       0x18 libc.a(morecore.o)
                                         0x30 (size before relaxing)
 .eh_frame      0x00000000004b6da0       0x30 libc.a(strchr.o)
                                         0x40 (size before relaxing)
 .eh_frame      0x00000000004b6dd0       0x48 libc.a(strcmp.o)
                                         0x58 (size before relaxing)
 .eh_frame      0x00000000004b6e18       0x30 libc.a(strcpy.o)
                                         0x40 (size before relaxing)
 .eh_frame      0x00000000004b6e48       0x38 libc.a(strdup.o)
                                         0x50 (size before relaxing)
 .eh_frame      0x00000000004b6e80       0x18 libc.a(strlen.o)
                                         0x30 (size before relaxing)
 .eh_frame      0x00000000004b6e98       0x18 libc.a(strncmp.o)
                                         0x30 (size before relaxing)
 .eh_frame      0x00000000004b6eb0       0xf0 libc.a(strstr.o)
                                        0x100 (size before relaxing)
 .eh_frame      0x00000000004b6fa0       0x18 libc.a(memchr.o)
                                         0x30 (size before relaxing)
 .eh_frame      0x00000000004b6fb8       0x30 libc.a(memcmp.o)
                                         0x40 (size before relaxing)
 .eh_frame      0x00000000004b6fe8       0x68 libc.a(memmove.o)
                                         0x78 (size before relaxing)
 .eh_frame      0x00000000004b7050       0x48 libc.a(memset.o)
                                         0x58 (size before relaxing)
 .eh_frame      0x00000000004b7098       0x40 libc.a(mempcpy.o)
                                         0x58 (size before relaxing)
 .eh_frame      0x00000000004b70d8       0x30 libc.a(stpcpy.o)
                                         0x40 (size before relaxing)
 .eh_frame      0x00000000004b7108       0xc0 libc.a(strcasecmp_l.o)
                                         0xb8 (size before relaxing)
 .eh_frame      0x00000000004b71c8       0x40 libc.a(memcpy.o)
                                         0x58 (size before relaxing)
 .eh_frame      0x00000000004b7208       0x90 libc.a(wordcopy.o)
                                         0xa0 (size before relaxing)
 .eh_frame      0x00000000004b7298       0x18 libc.a(rawmemchr.o)
                                         0x30 (size before relaxing)
 .eh_frame      0x00000000004b72b0       0x18 libc.a(strchrnul.o)
                                         0x30 (size before relaxing)
 .eh_frame      0x00000000004b72c8       0x30 libc.a(argz-count.o)
                                         0x48 (size before relaxing)
 .eh_frame      0x00000000004b72f8       0x30 libc.a(argz-stringify.o)
                                         0x48 (size before relaxing)
 .eh_frame      0x00000000004b7328       0x18 libc.a(strcmp-ssse3.o)
                                         0x30 (size before relaxing)
 .eh_frame      0x00000000004b7340       0x18 libc.a(strcmp-sse2-unaligned.o)
                                         0x30 (size before relaxing)
 .eh_frame      0x00000000004b7358       0x18 libc.a(memcmp-sse4.o)
                                         0x30 (size before relaxing)
 .eh_frame      0x00000000004b7370       0x30 libc.a(memmove-ssse3.o)
                                         0x40 (size before relaxing)
 .eh_frame      0x00000000004b73a0       0x30 libc.a(memmove-ssse3-back.o)
                                         0x40 (size before relaxing)
 .eh_frame      0x00000000004b73d0       0x30 libc.a(strcasecmp_l-ssse3.o)
                                         0x40 (size before relaxing)
 .eh_frame      0x00000000004b7400       0x18 libc.a(strcpy-ssse3.o)
                                         0x30 (size before relaxing)
 .eh_frame      0x00000000004b7418       0x18 libc.a(stpcpy-ssse3.o)
                                         0x30 (size before relaxing)
 .eh_frame      0x00000000004b7430       0x18 libc.a(strcpy-sse2-unaligned.o)
                                         0x30 (size before relaxing)
 .eh_frame      0x00000000004b7448       0x18 libc.a(stpcpy-sse2-unaligned.o)
                                         0x30 (size before relaxing)
 .eh_frame      0x00000000004b7460       0x18 libc.a(strchr-sse2-no-bsf.o)
                                         0x30 (size before relaxing)
 .eh_frame      0x00000000004b7478       0x18 libc.a(memcmp-ssse3.o)
                                         0x30 (size before relaxing)
 .eh_frame      0x00000000004b7490       0x18 libc.a(strstr-sse2-unaligned.o)
                                         0x30 (size before relaxing)
 .eh_frame      0x00000000004b74a8      0x188 libc.a(cacheinfo.o)
                                        0x198 (size before relaxing)
 .eh_frame      0x00000000004b7630       0x18 libc.a(strcasecmp_l-nonascii.o)
                                         0x30 (size before relaxing)
 .eh_frame      0x00000000004b7648       0x18 libc.a(wmempcpy.o)
                                         0x30 (size before relaxing)
 .eh_frame      0x00000000004b7660      0x100 libc.a(wcsmbsload.o)
                                        0x108 (size before relaxing)
 .eh_frame      0x00000000004b7760       0x18 libc.a(_exit.o)
                                         0x30 (size before relaxing)
 .eh_frame      0x00000000004b7778       0x78 libc.a(sysconf.o)
                                         0x90 (size before relaxing)
 .eh_frame      0x00000000004b77f0       0x18 libc.a(sched_yield.o)
                                         0x30 (size before relaxing)
 .eh_frame      0x00000000004b7808       0x18 libc.a(get_child_max.o)
                                         0x30 (size before relaxing)
 .eh_frame      0x00000000004b7820       0x18 libc.a(exit-thread.o)
                                         0x30 (size before relaxing)
 .eh_frame      0x00000000004b7838       0x18 libc.a(xstat.o)
                                         0x30 (size before relaxing)
 .eh_frame      0x00000000004b7850       0x18 libc.a(fxstat.o)
                                         0x30 (size before relaxing)
 .eh_frame      0x00000000004b7868       0x18 libc.a(open.o)
                                         0x30 (size before relaxing)
 .eh_frame      0x00000000004b7880       0x18 libc.a(read.o)
                                         0x30 (size before relaxing)
 .eh_frame      0x00000000004b7898       0x18 libc.a(write.o)
                                         0x30 (size before relaxing)
 .eh_frame      0x00000000004b78b0       0x40 libc.a(fcntl.o)
                                         0x50 (size before relaxing)
 .eh_frame      0x00000000004b78f0       0x18 libc.a(close.o)
                                         0x30 (size before relaxing)
 .eh_frame      0x00000000004b7908       0x50 libc.a(getcwd.o)
                                         0x68 (size before relaxing)
 .eh_frame      0x00000000004b7958       0x18 libc.a(getrlimit.o)
                                         0x30 (size before relaxing)
 .eh_frame      0x00000000004b7970       0x38 libc.a(sbrk.o)
                                         0x50 (size before relaxing)
 .eh_frame      0x00000000004b79a8       0x18 libc.a(getpagesize.o)
                                         0x30 (size before relaxing)
 .eh_frame      0x00000000004b79c0       0x18 libc.a(getdtsz.o)
                                         0x30 (size before relaxing)
 .eh_frame      0x00000000004b79d8       0x18 libc.a(mmap.o)
                                         0x30 (size before relaxing)
 .eh_frame      0x00000000004b79f0       0x18 libc.a(munmap.o)
                                         0x30 (size before relaxing)
 .eh_frame      0x00000000004b7a08       0x18 libc.a(mprotect.o)
                                         0x30 (size before relaxing)
 .eh_frame      0x00000000004b7a20       0x18 libc.a(madvise.o)
                                         0x30 (size before relaxing)
 .eh_frame      0x00000000004b7a38      0x210 libc.a(tsearch.o)
                                        0x220 (size before relaxing)
 .eh_frame      0x00000000004b7c48      0x120 libc.a(getsysstats.o)
                                        0x128 (size before relaxing)
 .eh_frame      0x00000000004b7d68       0x18 libc.a(getclktck.o)
                                         0x30 (size before relaxing)
 .eh_frame      0x00000000004b7d80       0x28 libc.a(init-misc.o)
                                         0x40 (size before relaxing)
 .eh_frame      0x00000000004b7da8       0x18 libc.a(llseek.o)
                                         0x30 (size before relaxing)
 .eh_frame      0x00000000004b7dc0       0x18 libc.a(mremap.o)
                                         0x30 (size before relaxing)
 .eh_frame      0x00000000004b7dd8       0x18 libc.a(alloca_cutoff.o)
                                         0x30 (size before relaxing)
 .eh_frame      0x00000000004b7df0       0x50 libc.a(libc-lowlevellock.o)
                                         0x60 (size before relaxing)
 .eh_frame      0x00000000004b7e40       0x30 libc.a(libc-cancellation.o)
                                         0x40 (size before relaxing)
 .eh_frame      0x00000000004b7e70      0x190 libc.a(register-atfork.o)
                                        0x200 (size before relaxing)
 .eh_frame      0x00000000004b8000       0x18 libc.a(chk_fail.o)
                                         0x30 (size before relaxing)
 .eh_frame      0x00000000004b8018       0x20 libc.a(fortify_fail.o)
                                         0x38 (size before relaxing)
 .eh_frame      0x00000000004b8038       0x58 libc.a(backtrace.o)
                                         0x70 (size before relaxing)
 .eh_frame      0x00000000004b8090       0x50 libc.a(backtracesymsfd.o)
                                         0x68 (size before relaxing)
 .eh_frame      0x00000000004b80e0       0xa8 libc.a(dl-support.o)
                                         0xc0 (size before relaxing)
 .eh_frame      0x00000000004b8188       0x68 libc.a(dl-addr.o)
                                         0x78 (size before relaxing)
 .eh_frame      0x00000000004b81f0       0x20 libc.a(enbl-secure.o)
                                         0x38 (size before relaxing)
 .eh_frame      0x00000000004b8210       0x38 libc.a(dl-sysdep.o)
                                         0x50 (size before relaxing)
 .eh_frame      0x00000000004b8248       0x48 libc.a(init-first.o)
                                         0x60 (size before relaxing)
 .eh_frame      0x00000000004b8290       0x18 libc.a(sysdep.o)
                                         0x30 (size before relaxing)
 .eh_frame      0x00000000004b82a8       0x40 libc.a(init-arch.o)
                                         0x58 (size before relaxing)
 .eh_frame      0x00000000004b82e8       0x30 libc.a(gconv_open.o)
                                         0x48 (size before relaxing)
 .eh_frame      0x00000000004b8318       0x50 libc.a(gconv.o)
                                         0x68 (size before relaxing)
 .eh_frame      0x00000000004b8368       0x50 libc.a(gconv_close.o)
                                         0x68 (size before relaxing)
 .eh_frame      0x00000000004b83b8      0x498 libc.a(gconv_db.o)
                                        0x530 (size before relaxing)
 .eh_frame      0x00000000004b8850      0x198 libc.a(gconv_conf.o)
                                        0x1d8 (size before relaxing)
 .eh_frame      0x00000000004b89e8       0x20 libc.a(gconv_builtin.o)
                                         0x38 (size before relaxing)
 .eh_frame      0x00000000004b8a08      0x3d8 libc.a(gconv_simple.o)
                                        0x3f0 (size before relaxing)
 .eh_frame      0x00000000004b8de0      0x178 libc.a(gconv_trans.o)
                                        0x1b8 (size before relaxing)
 .eh_frame      0x00000000004b8f58      0x180 libc.a(gconv_cache.o)
 .eh_frame      0x00000000004b90d8       0xf0 libc.a(gconv_dl.o)
                                        0x100 (size before relaxing)
 .eh_frame      0x00000000004b91c8       0xd0 libc.a(setlocale.o)
                                         0xe8 (size before relaxing)
 .eh_frame      0x00000000004b9298       0x60 libc.a(findlocale.o)
                                         0x70 (size before relaxing)
 .eh_frame      0x00000000004b92f8       0xa0 libc.a(loadlocale.o)
                                         0xb0 (size before relaxing)
 .eh_frame      0x00000000004b9398       0x78 libc.a(loadarchive.o)
                                         0x90 (size before relaxing)
 .eh_frame      0x00000000004b9410       0x18 libc.a(lc-ctype.o)
                                         0x30 (size before relaxing)
 .eh_frame      0x00000000004b9428       0x18 libc.a(localename.o)
                                         0x30 (size before relaxing)
 .eh_frame      0x00000000004b9440       0x60 libc.a(ctype-info.o)
                                         0x68 (size before relaxing)
 .eh_frame      0x00000000004b94a0       0x18 libc.a(setfpucw.o)
                                         0x30 (size before relaxing)
 .eh_frame      0x00000000004b94b8       0x18 libc.a(setjmp.o)
                                         0x30 (size before relaxing)
 .eh_frame      0x00000000004b94d0       0x20 libc.a(sigjmp.o)
                                         0x38 (size before relaxing)
 .eh_frame      0x00000000004b94f0       0x18 libc.a(raise.o)
                                         0x30 (size before relaxing)
 .eh_frame      0x00000000004b9508       0xd8 libc.a(sigaction.o)
                                         0xe8 (size before relaxing)
 .eh_frame      0x00000000004b95e0       0x18 libc.a(sigprocmask.o)
                                         0x30 (size before relaxing)
 .eh_frame      0x00000000004b95f8       0x50 libc.a(qsort.o)
                                         0x68 (size before relaxing)
 .eh_frame      0x00000000004b9648      0x330 libc.a(setenv.o)
                                        0x400 (size before relaxing)
 .eh_frame      0x00000000004b9978       0x18 libc.a(secure-getenv.o)
                                         0x30 (size before relaxing)
 .eh_frame      0x00000000004b9990       0x30 libc.a(strtol.o)
                                         0x40 (size before relaxing)
 .eh_frame      0x00000000004b99c0       0x80 libc.a(strtol_l.o)
                                         0x98 (size before relaxing)
 .eh_frame      0x00000000004b9a40       0x40 libc.a(_itoa.o)
                                         0x50 (size before relaxing)
 .eh_frame      0x00000000004b9a80      0x270 libc.a(vfprintf.o)
                                        0x2d8 (size before relaxing)
 .eh_frame      0x00000000004b9cf0       0xd0 libc.a(printf_fp.o)
                                         0xe0 (size before relaxing)
 .eh_frame      0x00000000004b9dc0       0xd8 libc.a(reg-printf.o)
                                        0x118 (size before relaxing)
 .eh_frame      0x00000000004b9e98       0x50 libc.a(printf_fphex.o)
                                         0x68 (size before relaxing)
 .eh_frame      0x00000000004b9ee8      0x1a8 libc.a(reg-modifier.o)
                                        0x1e8 (size before relaxing)
 .eh_frame      0x00000000004ba090       0xb0 libc.a(reg-type.o)
                                         0xf8 (size before relaxing)
 .eh_frame      0x00000000004ba140       0x20 libc.a(fprintf.o)
                                         0x38 (size before relaxing)
 .eh_frame      0x00000000004ba160       0x20 libc.a(sscanf.o)
                                         0x38 (size before relaxing)
 .eh_frame      0x00000000004ba180       0x60 libc.a(funlockfile.o)
                                         0x90 (size before relaxing)
 .eh_frame      0x00000000004ba1e0      0x268 libc.a(vfwprintf.o)
                                        0x2d8 (size before relaxing)
 .eh_frame      0x00000000004ba448       0x48 libc.a(printf-parsemb.o)
                                         0x60 (size before relaxing)
 .eh_frame      0x00000000004ba490       0x48 libc.a(printf-parsewc.o)
                                         0x60 (size before relaxing)
 .eh_frame      0x00000000004ba4d8       0x38 libc.a(filedoalloc.o)
                                         0x50 (size before relaxing)
 .eh_frame      0x00000000004ba510      0x110 libc.a(iofputs.o)
                                        0x178 (size before relaxing)
 .eh_frame      0x00000000004ba620      0x140 libc.a(iofwrite.o)
                                        0x1a8 (size before relaxing)
 .eh_frame      0x00000000004ba760      0x128 libc.a(iogetdelim.o)
                                        0x190 (size before relaxing)
 .eh_frame      0x00000000004ba888       0x80 libc.a(iogetline.o)
                                         0x90 (size before relaxing)
 .eh_frame      0x00000000004ba908       0x50 libc.a(iopadn.o)
                                         0x68 (size before relaxing)
 .eh_frame      0x00000000004ba958       0x38 libc.a(iovsscanf.o)
                                         0x50 (size before relaxing)
 .eh_frame      0x00000000004ba990      0x1f0 libc.a(iofwide.o)
                                        0x1e8 (size before relaxing)
 .eh_frame      0x00000000004bab80       0x30 libc.a(wfiledoalloc.o)
                                         0x48 (size before relaxing)
 .eh_frame      0x00000000004babb0       0x50 libc.a(iowpadn.o)
                                         0x68 (size before relaxing)
 .eh_frame      0x00000000004bac00      0x420 libc.a(wgenops.o)
                                        0x3f0 (size before relaxing)
 .eh_frame      0x00000000004bb020       0x38 libc.a(strndup.o)
                                         0x50 (size before relaxing)
 .eh_frame      0x00000000004bb058       0x68 libc.a(_strerror.o)
                                         0x80 (size before relaxing)
 .eh_frame      0x00000000004bb0c0       0x18 libc.a(strnlen.o)
                                         0x30 (size before relaxing)
 .eh_frame      0x00000000004bb0d8       0x18 libc.a(strrchr.o)
                                         0x30 (size before relaxing)
 .eh_frame      0x00000000004bb0f0       0x60 libc.a(argz-ctsep.o)
                                         0x78 (size before relaxing)
 .eh_frame      0x00000000004bb150       0x40 libc.a(argz-addsep.o)
                                         0x58 (size before relaxing)
 .eh_frame      0x00000000004bb190       0x18 libc.a(wmemcpy.o)
                                         0x30 (size before relaxing)
 .eh_frame      0x00000000004bb1a8       0x18 libc.a(wmemset.o)
                                         0x30 (size before relaxing)
 .eh_frame      0x00000000004bb1c0       0x18 libc.a(wcslen.o)
                                         0x30 (size before relaxing)
 .eh_frame      0x00000000004bb1d8       0x18 libc.a(wmemmove.o)
                                         0x30 (size before relaxing)
 .eh_frame      0x00000000004bb1f0       0x38 libc.a(btowc.o)
                                         0x50 (size before relaxing)
 .eh_frame      0x00000000004bb228       0x48 libc.a(wcrtomb.o)
                                         0x60 (size before relaxing)
 .eh_frame      0x00000000004bb270       0x18 libc.a(mbsrtowcs.o)
                                         0x30 (size before relaxing)
 .eh_frame      0x00000000004bb288       0x50 libc.a(wcsrtombs.o)
                                         0x68 (size before relaxing)
 .eh_frame      0x00000000004bb2d8       0x18 libc.a(wcsnlen.o)
                                         0x30 (size before relaxing)
 .eh_frame      0x00000000004bb2f0       0x18 libc.a(wcschrnul.o)
                                         0x30 (size before relaxing)
 .eh_frame      0x00000000004bb308       0x50 libc.a(mbsrtowcs_l.o)
                                         0x68 (size before relaxing)
 .eh_frame      0x00000000004bb358       0x18 libc.a(time.o)
                                         0x30 (size before relaxing)
 .eh_frame      0x00000000004bb370      0x340 libc.a(tzset.o)
                                        0x3e0 (size before relaxing)
 .eh_frame      0x00000000004bb6b0      0x108 libc.a(tzfile.o)
                                        0x118 (size before relaxing)
 .eh_frame      0x00000000004bb7b8       0x98 libc.a(opendir.o)
                                         0xa8 (size before relaxing)
 .eh_frame      0x00000000004bb850       0x20 libc.a(closedir.o)
                                         0x38 (size before relaxing)
 .eh_frame      0x00000000004bb870       0xd0 libc.a(readdir.o)
                                        0x118 (size before relaxing)
 .eh_frame      0x00000000004bb940       0xb0 libc.a(rewinddir.o)
                                         0xf8 (size before relaxing)
 .eh_frame      0x00000000004bb9f0       0x40 libc.a(getdents.o)
                                         0x58 (size before relaxing)
 .eh_frame      0x00000000004bba30       0x28 libc.a(fdopendir.o)
                                         0x40 (size before relaxing)
 .eh_frame      0x00000000004bba58       0x18 libc.a(uname.o)
                                         0x30 (size before relaxing)
 .eh_frame      0x00000000004bba70       0x38 libc.a(fork.o)
                                         0x50 (size before relaxing)
 .eh_frame      0x00000000004bbaa8       0x18 libc.a(getuid.o)
                                         0x30 (size before relaxing)
 .eh_frame      0x00000000004bbac0       0x18 libc.a(geteuid.o)
                                         0x30 (size before relaxing)
 .eh_frame      0x00000000004bbad8       0x18 libc.a(getgid.o)
                                         0x30 (size before relaxing)
 .eh_frame      0x00000000004bbaf0       0x18 libc.a(getegid.o)
                                         0x30 (size before relaxing)
 .eh_frame      0x00000000004bbb08       0x18 libc.a(lxstat.o)
                                         0x30 (size before relaxing)
 .eh_frame      0x00000000004bbb20       0x18 libc.a(fxstatat.o)
                                         0x30 (size before relaxing)
 .eh_frame      0x00000000004bbb38       0x40 libc.a(openat.o)
                                         0x50 (size before relaxing)
 .eh_frame      0x00000000004bbb78       0x18 libc.a(access.o)
                                         0x30 (size before relaxing)
 .eh_frame      0x00000000004bbb90       0x18 libc.a(isatty.o)
                                         0x30 (size before relaxing)
 .eh_frame      0x00000000004bbba8       0x18 libc.a(tcgetattr.o)
                                         0x30 (size before relaxing)
 .eh_frame      0x00000000004bbbc0       0x18 libc.a(brk.o)
                                         0x30 (size before relaxing)
 .eh_frame      0x00000000004bbbd8       0x20 libc.a(writev.o)
                                         0x38 (size before relaxing)
 .eh_frame      0x00000000004bbbf8       0x50 libc.a(wctrans.o)
                                         0x68 (size before relaxing)
 .eh_frame      0x00000000004bbc48       0x18 libc.a(towctrans.o)
                                         0x30 (size before relaxing)
 .eh_frame      0x00000000004bbc60       0x60 libc.a(readonly-area.o)
                                         0x78 (size before relaxing)
 .eh_frame      0x00000000004bbcc0      0x470 libc.a(dl-load.o)
                                        0x468 (size before relaxing)
 .eh_frame      0x00000000004bc130       0xe8 libc.a(dl-lookup.o)
                                        0x100 (size before relaxing)
 .eh_frame      0x00000000004bc218       0x88 libc.a(dl-object.o)
                                         0x98 (size before relaxing)
 .eh_frame      0x00000000004bc2a0       0xd0 libc.a(dl-reloc.o)
                                         0xe0 (size before relaxing)
 .eh_frame      0x00000000004bc370       0x38 libc.a(dl-hwcaps.o)
                                         0x50 (size before relaxing)
 .eh_frame      0x00000000004bc3a8       0xe8 libc.a(dl-error.o)
                                         0xf8 (size before relaxing)
 .eh_frame      0x00000000004bc490       0x30 libc.a(dl-debug.o)
                                         0x40 (size before relaxing)
 .eh_frame      0x00000000004bc4c0      0x128 libc.a(dl-misc.o)
 .eh_frame      0x00000000004bc5e8      0x180 libc.a(dl-tls.o)
 .eh_frame      0x00000000004bc768       0x58 libc.a(dl-origin.o)
                                         0x70 (size before relaxing)
 .eh_frame      0x00000000004bc7c0       0x30 libc.a(dl-scope.o)
                                         0x48 (size before relaxing)
 .eh_frame      0x00000000004bc7f0       0x28 libc.a(dl-execstack.o)
                                         0x40 (size before relaxing)
 .eh_frame      0x00000000004bc818      0x138 libc.a(dl-open.o)
                                        0x148 (size before relaxing)
 .eh_frame      0x00000000004bc950       0xd8 libc.a(dl-close.o)
                                         0xe8 (size before relaxing)
 .eh_frame      0x00000000004bca28       0x80 libc.a(dl-trampoline.o)
 .eh_frame      0x00000000004bcaa8       0x98 libc.a(dl-cache.o)
                                         0xb0 (size before relaxing)
 .eh_frame      0x00000000004bcb40       0x30 libc.a(dl-profstub.o)
                                         0x40 (size before relaxing)
 .eh_frame      0x00000000004bcb70      0x1c0 libc.a(dl-libc.o)
                                        0x1c8 (size before relaxing)
 .eh_frame      0x00000000004bcd30       0x18 libc.a(dl-tsd.o)
                                         0x30 (size before relaxing)
 .eh_frame      0x00000000004bcd48       0x80 libc.a(tlsdesc.o)
                                         0x90 (size before relaxing)
 .eh_frame      0x00000000004bcdc8       0x68 libc.a(dl-tlsdesc.o)
                                         0x78 (size before relaxing)
 .eh_frame      0x00000000004bce30       0x18 libc.a(s_isinf.o)
                                         0x30 (size before relaxing)
 .eh_frame      0x00000000004bce48       0x18 libc.a(s_isnan.o)
                                         0x30 (size before relaxing)
 .eh_frame      0x00000000004bce60       0x18 libc.a(s_isinfl.o)
                                         0x30 (size before relaxing)
 .eh_frame      0x00000000004bce78       0x18 libc.a(s_isnanl.o)
                                         0x30 (size before relaxing)
 .eh_frame      0x00000000004bce90       0x30 libc.a(__longjmp.o)
                                         0x48 (size before relaxing)
 .eh_frame      0x00000000004bcec0       0x18 libc.a(cmp.o)
                                         0x30 (size before relaxing)
 .eh_frame      0x00000000004bced8       0x98 libc.a(divrem.o)
                                         0xb0 (size before relaxing)
 .eh_frame      0x00000000004bcf70       0x18 libc.a(lshift.o)
                                         0x30 (size before relaxing)
 .eh_frame      0x00000000004bcf88       0x18 libc.a(rshift.o)
                                         0x30 (size before relaxing)
 .eh_frame      0x00000000004bcfa0       0x30 libc.a(mul.o)
                                         0x48 (size before relaxing)
 .eh_frame      0x00000000004bcfd0       0x20 libc.a(mul_1.o)
                                         0x38 (size before relaxing)
 .eh_frame      0x00000000004bcff0      0x168 libc.a(mul_n.o)
                                        0x170 (size before relaxing)
 .eh_frame      0x00000000004bd158       0x18 libc.a(sub_n.o)
                                         0x30 (size before relaxing)
 .eh_frame      0x00000000004bd170       0x18 libc.a(submul_1.o)
                                         0x30 (size before relaxing)
 .eh_frame      0x00000000004bd188       0x18 libc.a(dbl2mpn.o)
                                         0x30 (size before relaxing)
 .eh_frame      0x00000000004bd1a0       0x18 libc.a(ldbl2mpn.o)
                                         0x30 (size before relaxing)
 .eh_frame      0x00000000004bd1b8       0xe0 libc.a(vfscanf.o)
                                        0x128 (size before relaxing)
 .eh_frame      0x00000000004bd298       0x18 libc.a(fileno.o)
                                         0x30 (size before relaxing)
 .eh_frame      0x00000000004bd2b0      0x108 libc.a(fseek.o)
                                        0x170 (size before relaxing)
 .eh_frame      0x00000000004bd3b8      0x100 libc.a(ftello.o)
                                        0x168 (size before relaxing)
 .eh_frame      0x00000000004bd4b8       0x38 libc.a(iofread_u.o)
                                         0x50 (size before relaxing)
 .eh_frame      0x00000000004bd4f0       0xd0 libc.a(sdlerror.o)
                                         0xe8 (size before relaxing)
 .eh_frame      0x00000000004bd5c0       0x18 libc.a(sdladdr.o)
                                         0x30 (size before relaxing)
 .eh_frame      0x00000000004bd5d8       0x18 libc.a(sdladdr1.o)
                                         0x30 (size before relaxing)
 .eh_frame      0x00000000004bd5f0       0x58 libc.a(sdlinfo.o)
                                         0x70 (size before relaxing)
 .eh_frame      0x00000000004bd648       0x40 libc.a(sdlmopen.o)
                                         0x58 (size before relaxing)
 .eh_frame      0x00000000004bd688       0x48 libc.a(strerror.o)
                                         0x60 (size before relaxing)
 .eh_frame      0x00000000004bd6d0       0x38 libc.a(strsep.o)
                                         0x50 (size before relaxing)
 .eh_frame      0x00000000004bd708       0x18 libc.a(mbrlen.o)
                                         0x30 (size before relaxing)
 .eh_frame      0x00000000004bd720       0x88 libc.a(mbrtowc.o)
                                         0xa0 (size before relaxing)
 .eh_frame      0x00000000004bd7a8       0x58 libc.a(offtime.o)
                                         0x70 (size before relaxing)
 .eh_frame      0x00000000004bd800       0x30 libc.a(localtime.o)
                                         0x40 (size before relaxing)
 .eh_frame      0x00000000004bd830       0xa0 libc.a(mktime.o)
                                         0xb8 (size before relaxing)
 .eh_frame      0x00000000004bd8d0       0x18 libc.a(getpid.o)
                                         0x30 (size before relaxing)
 .eh_frame      0x00000000004bd8e8       0xa0 libc.a(dl-deps.o)
                                         0xb0 (size before relaxing)
 .eh_frame      0x00000000004bd988       0x80 libc.a(dl-runtime.o)
                                         0x90 (size before relaxing)
 .eh_frame      0x00000000004bda08       0xa0 libc.a(dl-init.o)
                                         0xb8 (size before relaxing)
 .eh_frame      0x00000000004bdaa8       0x60 libc.a(dl-fini.o)
                                         0x78 (size before relaxing)
 .eh_frame      0x00000000004bdb08       0xb0 libc.a(dl-version.o)
                                         0xc8 (size before relaxing)
 .eh_frame      0x00000000004bdbb8       0x68 libc.a(dl-profile.o)
                                         0x80 (size before relaxing)
 .eh_frame      0x00000000004bdc20       0x18 libc.a(add_n.o)
                                         0x30 (size before relaxing)
 .eh_frame      0x00000000004bdc38       0x18 libc.a(addmul_1.o)
                                         0x30 (size before relaxing)
 .eh_frame      0x00000000004bdc50       0x30 libc.a(strtof.o)
                                         0x40 (size before relaxing)
 .eh_frame      0x00000000004bdc80       0x30 libc.a(strtod.o)
                                         0x40 (size before relaxing)
 .eh_frame      0x00000000004bdcb0       0x30 libc.a(strtold.o)
                                         0x40 (size before relaxing)
 .eh_frame      0x00000000004bdce0      0x150 libc.a(strtof_l.o)
                                        0x160 (size before relaxing)
 .eh_frame      0x00000000004bde30      0x150 libc.a(strtod_l.o)
                                        0x160 (size before relaxing)
 .eh_frame      0x00000000004bdf80      0x138 libc.a(strtold_l.o)
                                        0x148 (size before relaxing)
 .eh_frame      0x00000000004be0b8      0x140 libc.a(ioseekoff.o)
                                        0x1c0 (size before relaxing)
 .eh_frame      0x00000000004be1f8       0x40 libc.a(sdlopen.o)
                                         0x58 (size before relaxing)
 .eh_frame      0x00000000004be238       0x30 libc.a(sdlclose.o)
                                         0x48 (size before relaxing)
 .eh_frame      0x00000000004be268       0x48 libc.a(sdlsym.o)
                                         0x58 (size before relaxing)
 .eh_frame      0x00000000004be2b0       0x48 libc.a(sdlvsym.o)
                                         0x58 (size before relaxing)
 .eh_frame      0x00000000004be2f8       0x20 libc.a(strpbrk.o)
                                         0x38 (size before relaxing)
 .eh_frame      0x00000000004be318       0xc0 libc.a(strncase_l.o)
                                         0xb8 (size before relaxing)
 .eh_frame      0x00000000004be3d8       0x30 libc.a(strncase_l-ssse3.o)
                                         0x40 (size before relaxing)
 .eh_frame      0x00000000004be408       0x18 libc.a(strncase_l-nonascii.o)
                                         0x30 (size before relaxing)
 .eh_frame      0x00000000004be420       0x68 libc.a(profil.o)
                                         0x80 (size before relaxing)
 .eh_frame      0x00000000004be488       0x18 libc.a(prof-freq.o)
                                         0x30 (size before relaxing)
 .eh_frame      0x00000000004be4a0       0x80 libc.a(dl-sym.o)
                                         0x98 (size before relaxing)
 .eh_frame      0x00000000004be520       0x18 libc.a(mpn2flt.o)
                                         0x30 (size before relaxing)
 .eh_frame      0x00000000004be538       0x18 libc.a(mpn2dbl.o)
                                         0x30 (size before relaxing)
 .eh_frame      0x00000000004be550       0x18 libc.a(mpn2ldbl.o)
                                         0x30 (size before relaxing)
 .eh_frame      0x00000000004be568       0x18 libc.a(setitimer.o)
                                         0x30 (size before relaxing)
 .eh_frame      0x00000000004be580      0x560 libgcc_eh.a(unwind-dw2.o)
                                        0x530 (size before relaxing)
 .eh_frame      0x00000000004beae0      0x5b0 libgcc_eh.a(unwind-dw2-fde-dip.o)
                                        0x588 (size before relaxing)
 .eh_frame      0x00000000004bf090       0xa8 libgcc_eh.a(unwind-c.o)
                                         0xb8 (size before relaxing)
 .eh_frame      0x00000000004bf138       0x40 libc.a(dl-iteratephdr.o)
                                         0x58 (size before relaxing)
 .eh_frame      0x00000000004bf178        0x4 crtend.o

.gcc_except_table
                0x00000000004bf17c       0xb5
 *(.gcc_except_table .gcc_except_table.*)
 .gcc_except_table
                0x00000000004bf17c       0x14 libc.a(iofclose.o)
 .gcc_except_table
                0x00000000004bf190        0xe libc.a(iofflush.o)
 .gcc_except_table
                0x00000000004bf19e       0x10 libc.a(ioputs.o)
 .gcc_except_table
                0x00000000004bf1ae       0x16 libc.a(wfileops.o)
 .gcc_except_table
                0x00000000004bf1c4       0x14 libc.a(fileops.o)
 .gcc_except_table
                0x00000000004bf1d8        0xf libc.a(iofputs.o)
 .gcc_except_table
                0x00000000004bf1e7        0xf libc.a(iofwrite.o)
 .gcc_except_table
                0x00000000004bf1f6       0x10 libc.a(iogetdelim.o)
 .gcc_except_table
                0x00000000004bf206        0xe libc.a(fseek.o)
 .gcc_except_table
                0x00000000004bf214        0xe libc.a(ftello.o)
 .gcc_except_table
                0x00000000004bf222        0xf libc.a(ioseekoff.o)

.exception_ranges
 *(.exception_ranges .exception_ranges*)
                0x00000000004bf231                . = (ALIGN (0x200000) - ((0x200000 - .) & 0x1fffff))
                0x00000000006bfe99                . = DATA_SEGMENT_ALIGN (0x200000, 0x1000)

.eh_frame
 *(.eh_frame)

.gcc_except_table
 *(.gcc_except_table .gcc_except_table.*)

.exception_ranges
 *(.exception_ranges .exception_ranges*)

.tdata          0x00000000006bfea0       0x20
 *(.tdata .tdata.* .gnu.linkonce.td.*)
 .tdata         0x00000000006bfea0        0x8 libc.a(global-locale.o)
                0x00000000006bfea0                __libc_tsd_LOCALE
 .tdata         0x00000000006bfea8        0x8 libc.a(lc-ctype.o)
                0x00000000006bfea8                _nl_current_LC_CTYPE
 .tdata         0x00000000006bfeb0        0x8 libc.a(lc-monetary.o)
                0x00000000006bfeb0                _nl_current_LC_MONETARY
 .tdata         0x00000000006bfeb8        0x8 libc.a(lc-numeric.o)
                0x00000000006bfeb8                _nl_current_LC_NUMERIC

.tbss           0x00000000006bfec0       0x38
 *(.tbss .tbss.* .gnu.linkonce.tb.*)
 .tbss          0x00000000006bfec0        0x4 libc.a(errno.o)
                0x00000000006bfec0                errno
                0x00000000006bfec0                __libc_errno
 *fill*         0x00000000006bfec4        0xc 
 .tbss          0x00000000006bfed0        0x8 libc.a(malloc.o)
 .tbss          0x00000000006bfed8       0x18 libc.a(ctype-info.o)
                0x00000000006bfed8                __libc_tsd_CTYPE_TOUPPER
                0x00000000006bfee0                __libc_tsd_CTYPE_TOLOWER
                0x00000000006bfee8                __libc_tsd_CTYPE_B
 .tbss          0x00000000006bfef0        0x8 libc.a(dl-tsd.o)
 *(.tcommon)

.preinit_array  0x00000000006bfec0        0x0
                0x00000000006bfec0                PROVIDE (__preinit_array_start, .)
 *(.preinit_array)
                0x00000000006bfec0                PROVIDE (__preinit_array_end, .)

.init_array     0x00000000006bfec0       0x10
                0x00000000006bfec0                PROVIDE (__init_array_start, .)
 *(SORT(.init_array.*) SORT(.ctors.*))
 *(.init_array EXCLUDE_FILE(*crtend?.o *crtend.o *crtbegin?.o *crtbegin.o) .ctors)
 .init_array    0x00000000006bfec0        0x8 crtbeginT.o
 .init_array    0x00000000006bfec8        0x8 libc.a(cacheinfo.o)
                0x00000000006bfed0                PROVIDE (__init_array_end, .)

.fini_array     0x00000000006bfed0       0x10
                0x00000000006bfed0                PROVIDE (__fini_array_start, .)
 *(SORT(.fini_array.*) SORT(.dtors.*))
 *(.fini_array EXCLUDE_FILE(*crtend?.o *crtend.o *crtbegin?.o *crtbegin.o) .dtors)
 .fini_array    0x00000000006bfed0        0x8 crtbeginT.o
 .fini_array    0x00000000006bfed8        0x8 libc.a(sdlerror.o)
                0x00000000006bfee0                PROVIDE (__fini_array_end, .)

.ctors
 *crtbegin.o(.ctors)
 *crtbegin?.o(.ctors)
 *(EXCLUDE_FILE(*crtend?.o *crtend.o) .ctors)
 *(SORT(.ctors.*))
 *(.ctors)

.dtors
 *crtbegin.o(.dtors)
 *crtbegin?.o(.dtors)
 *(EXCLUDE_FILE(*crtend?.o *crtend.o) .dtors)
 *(SORT(.dtors.*))
 *(.dtors)

.jcr            0x00000000006bfee0        0x8
 *(.jcr)
 .jcr           0x00000000006bfee0        0x0 crtbeginT.o
 .jcr           0x00000000006bfee0        0x8 crtend.o

.data.rel.ro    0x00000000006bff00       0xe4
 *(.data.rel.ro.local* .gnu.linkonce.d.rel.ro.local.*)
 *(.data.rel.ro .data.rel.ro.* .gnu.linkonce.d.rel.ro.*)
 .data.rel.ro   0x00000000006bff00       0x98 libc.a(dl-support.o)
                0x00000000006bff80                _dl_random
                0x00000000006bff88                __libc_stack_end
                0x00000000006bff90                _dl_argv
 .data.rel.ro   0x00000000006bff98        0x4 libc.a(enbl-secure.o)
                0x00000000006bff98                __libc_enable_secure
 *fill*         0x00000000006bff9c        0x4 
 .data.rel.ro   0x00000000006bffa0       0x44 libc.a(dl-load.o)
                0x00000000006bffe0                __stack_prot

.dynamic
 *(.dynamic)

.got            0x00000000006bffe8       0x10
 *(.got)
 .got           0x00000000006bffe8       0x10 crt1.o
 *(.igot)
                0x00000000006c0fe8                . = DATA_SEGMENT_RELRO_END (., (SIZEOF (.got.plt) >= 0x18)?0x18:0x0)

.got.plt        0x00000000006c0000       0x60
 *(.got.plt)
 .got.plt       0x00000000006c0000       0x18 crt1.o
                0x00000000006c0000                _GLOBAL_OFFSET_TABLE_
 *(.igot.plt)
 .igot.plt      0x00000000006c0018       0x48 crt1.o

.data           0x00000000006c0060     0x1bd0
 *(.data .data.* .gnu.linkonce.d.*)
 .data          0x00000000006c0060        0x4 crt1.o
                0x00000000006c0060                data_start
                0x00000000006c0060                __data_start
 .data          0x00000000006c0064        0x0 crti.o
 *fill*         0x00000000006c0064        0x4 
 .data          0x00000000006c0068        0x8 crtbeginT.o
                0x00000000006c0068                __dso_handle
 .data          0x00000000006c0070        0x0 hello.o
 .data          0x00000000006c0070        0x0 libc.a(libc-start.o)
 .data          0x00000000006c0070        0x0 libc.a(check_fds.o)
 .data          0x00000000006c0070        0x8 libc.a(libc-tls.o)
                0x00000000006c0070                _dl_tls_static_size
 .data          0x00000000006c0078        0x0 libc.a(elf-init.o)
 .data          0x00000000006c0078        0x0 libc.a(errno.o)
 .data          0x00000000006c0078        0x0 libc.a(assert.o)
 .data          0x00000000006c0078        0x0 libc.a(dcgettext.o)
 *fill*         0x00000000006c0078        0x8 
 .data          0x00000000006c0080        0x8 libc.a(dcigettext.o)
                0x00000000006c0080                _nl_current_default_domain
 .data          0x00000000006c0088        0x0 libc.a(finddomain.o)
 .data          0x00000000006c0088        0x0 libc.a(loadmsgcat.o)
 *fill*         0x00000000006c0088        0x8 
 .data          0x00000000006c0090        0x8 libc.a(localealias.o)
 .data          0x00000000006c0098        0x0 libc.a(l10nflist.o)
 .data          0x00000000006c0098        0x0 libc.a(explodename.o)
 .data          0x00000000006c0098        0x0 libc.a(plural.o)
 .data          0x00000000006c0098        0x0 libc.a(plural-exp.o)
 .data          0x00000000006c0098        0x0 libc.a(hash-string.o)
 .data          0x00000000006c0098        0x0 libc.a(bsd-_setjmp.o)
 .data          0x00000000006c0098        0x0 libc.a(abort.o)
 .data          0x00000000006c0098        0x0 libc.a(msort.o)
 .data          0x00000000006c0098        0x0 libc.a(getenv.o)
 .data          0x00000000006c0098        0x0 libc.a(exit.o)
 .data          0x00000000006c0098        0x8 libc.a(cxa_atexit.o)
                0x00000000006c0098                __exit_funcs
 .data          0x00000000006c00a0        0x0 libc.a(strtoul.o)
 .data          0x00000000006c00a0        0x0 libc.a(strtoul_l.o)
 .data          0x00000000006c00a0        0x0 libc.a(grouping.o)
 .data          0x00000000006c00a0        0x0 libc.a(asprintf.o)
 .data          0x00000000006c00a0        0x0 libc.a(fxprintf.o)
 .data          0x00000000006c00a0        0x0 libc.a(iofclose.o)
 .data          0x00000000006c00a0        0x0 libc.a(iofflush.o)
 .data          0x00000000006c00a0        0x0 libc.a(iofopen.o)
 .data          0x00000000006c00a0        0x0 libc.a(ioputs.o)
 .data          0x00000000006c00a0        0x0 libc.a(vasprintf.o)
 .data          0x00000000006c00a0        0x0 libc.a(fcloseall.o)
 .data          0x00000000006c00a0        0x0 libc.a(libc_fatal.o)
 .data          0x00000000006c00a0        0x0 libc.a(iofgets_u.o)
 .data          0x00000000006c00a0        0x0 libc.a(wfileops.o)
 .data          0x00000000006c00a0        0x0 libc.a(fileops.o)
 .data          0x00000000006c00a0        0x0 libc.a(genops.o)
 .data          0x00000000006c00a0      0x6c8 libc.a(stdfiles.o)
                0x00000000006c00a0                _IO_list_all
                0x00000000006c00c0                _IO_2_1_stderr_
                0x00000000006c0300                _IO_2_1_stdout_
                0x00000000006c0540                _IO_2_1_stdin_
 .data          0x00000000006c0768       0x18 libc.a(stdio.o)
                0x00000000006c0768                stderr
                0x00000000006c0768                _IO_stderr
                0x00000000006c0770                stdout
                0x00000000006c0770                _IO_stdout
                0x00000000006c0778                stdin
                0x00000000006c0778                _IO_stdin
 .data          0x00000000006c0780        0x0 libc.a(strops.o)
 .data          0x00000000006c0780      0x978 libc.a(malloc.o)
                0x00000000006c0790                __libc_malloc_initialized
                0x00000000006c07c0                __memalign_hook
                0x00000000006c07d0                __realloc_hook
                0x00000000006c07e0                __malloc_hook
                0x00000000006c10f0                __morecore
 .data          0x00000000006c10f8        0x0 libc.a(morecore.o)
 .data          0x00000000006c10f8        0x0 libc.a(strchr.o)
 .data          0x00000000006c10f8        0x0 libc.a(strcmp.o)
 .data          0x00000000006c10f8        0x0 libc.a(strcpy.o)
 .data          0x00000000006c10f8        0x0 libc.a(strdup.o)
 .data          0x00000000006c10f8        0x0 libc.a(strlen.o)
 .data          0x00000000006c10f8        0x0 libc.a(strncmp.o)
 .data          0x00000000006c10f8        0x0 libc.a(strstr.o)
 .data          0x00000000006c10f8        0x0 libc.a(memchr.o)
 .data          0x00000000006c10f8        0x0 libc.a(memcmp.o)
 .data          0x00000000006c10f8        0x0 libc.a(memmove.o)
 .data          0x00000000006c10f8        0x0 libc.a(memset.o)
 .data          0x00000000006c10f8        0x0 libc.a(mempcpy.o)
 .data          0x00000000006c10f8        0x0 libc.a(stpcpy.o)
 .data          0x00000000006c10f8        0x0 libc.a(strcasecmp_l.o)
 .data          0x00000000006c10f8        0x0 libc.a(memcpy.o)
 .data          0x00000000006c10f8        0x0 libc.a(wordcopy.o)
 .data          0x00000000006c10f8        0x0 libc.a(rawmemchr.o)
 .data          0x00000000006c10f8        0x0 libc.a(strchrnul.o)
 .data          0x00000000006c10f8        0x0 libc.a(argz-count.o)
 .data          0x00000000006c10f8        0x0 libc.a(argz-stringify.o)
 .data          0x00000000006c10f8        0x0 libc.a(strcmp-ssse3.o)
 .data          0x00000000006c10f8        0x0 libc.a(strcmp-sse2-unaligned.o)
 .data          0x00000000006c10f8        0x0 libc.a(memcmp-sse4.o)
 .data          0x00000000006c10f8        0x0 libc.a(memmove-ssse3.o)
 .data          0x00000000006c10f8        0x0 libc.a(memmove-ssse3-back.o)
 .data          0x00000000006c10f8        0x0 libc.a(strcasecmp_l-ssse3.o)
 .data          0x00000000006c10f8        0x0 libc.a(strcpy-ssse3.o)
 .data          0x00000000006c10f8        0x0 libc.a(stpcpy-ssse3.o)
 .data          0x00000000006c10f8        0x0 libc.a(strcpy-sse2-unaligned.o)
 .data          0x00000000006c10f8        0x0 libc.a(stpcpy-sse2-unaligned.o)
 .data          0x00000000006c10f8        0x0 libc.a(strchr-sse2-no-bsf.o)
 .data          0x00000000006c10f8        0x0 libc.a(memcmp-ssse3.o)
 .data          0x00000000006c10f8        0x0 libc.a(strstr-sse2-unaligned.o)
 *fill*         0x00000000006c10f8        0x8 
 .data          0x00000000006c1100       0x78 libc.a(cacheinfo.o)
                0x00000000006c1100                __x86_raw_shared_cache_size
                0x00000000006c1110                __x86_raw_shared_cache_size_half
                0x00000000006c1120                __x86_shared_cache_size
                0x00000000006c1130                __x86_shared_cache_size_half
                0x00000000006c1140                __x86_raw_data_cache_size
                0x00000000006c1150                __x86_raw_data_cache_size_half
                0x00000000006c1160                __x86_data_cache_size
                0x00000000006c1170                __x86_data_cache_size_half
 .data          0x00000000006c1178        0x0 libc.a(strcasecmp_l-nonascii.o)
 .data          0x00000000006c1178        0x0 libc.a(wmempcpy.o)
 .data          0x00000000006c1178        0x0 libc.a(wcsmbsload.o)
 .data          0x00000000006c1178        0x0 libc.a(_exit.o)
 .data          0x00000000006c1178        0x0 libc.a(sysconf.o)
 .data          0x00000000006c1178        0x0 libc.a(sched_yield.o)
 .data          0x00000000006c1178        0x0 libc.a(get_child_max.o)
 .data          0x00000000006c1178        0x0 libc.a(environ.o)
 .data          0x00000000006c1178        0x0 libc.a(exit-thread.o)
 .data          0x00000000006c1178        0x0 libc.a(xstat.o)
 .data          0x00000000006c1178        0x0 libc.a(fxstat.o)
 .data          0x00000000006c1178        0x0 libc.a(open.o)
 .data          0x00000000006c1178        0x0 libc.a(read.o)
 .data          0x00000000006c1178        0x0 libc.a(write.o)
 .data          0x00000000006c1178        0x0 libc.a(fcntl.o)
 .data          0x00000000006c1178        0x0 libc.a(close.o)
 .data          0x00000000006c1178        0x0 libc.a(getcwd.o)
 .data          0x00000000006c1178        0x0 libc.a(getrlimit.o)
 .data          0x00000000006c1178        0x0 libc.a(sbrk.o)
 .data          0x00000000006c1178        0x0 libc.a(getpagesize.o)
 .data          0x00000000006c1178        0x0 libc.a(getdtsz.o)
 .data          0x00000000006c1178        0x0 libc.a(mmap.o)
 .data          0x00000000006c1178        0x0 libc.a(munmap.o)
 .data          0x00000000006c1178        0x0 libc.a(mprotect.o)
 .data          0x00000000006c1178        0x0 libc.a(madvise.o)
 .data          0x00000000006c1178        0x0 libc.a(tsearch.o)
 .data          0x00000000006c1178        0x0 libc.a(getsysstats.o)
 .data          0x00000000006c1178        0x0 libc.a(getclktck.o)
 .data          0x00000000006c1178       0x10 libc.a(init-misc.o)
                0x00000000006c1178                __progname
                0x00000000006c1178                program_invocation_short_name
                0x00000000006c1180                program_invocation_name
                0x00000000006c1180                __progname_full
 .data          0x00000000006c1188        0x0 libc.a(llseek.o)
 .data          0x00000000006c1188        0x0 libc.a(mremap.o)
 .data          0x00000000006c1188        0x0 libc.a(alloca_cutoff.o)
 .data          0x00000000006c1188        0x0 libc.a(libc-lowlevellock.o)
 .data          0x00000000006c1188        0x0 libc.a(libc-cancellation.o)
 .data          0x00000000006c1188        0x0 libc.a(register-atfork.o)
 .data          0x00000000006c1188        0x0 libc.a(libc_multiple_threads.o)
 .data          0x00000000006c1188        0x0 libc.a(chk_fail.o)
 .data          0x00000000006c1188        0x0 libc.a(fortify_fail.o)
 .data          0x00000000006c1188        0x0 libc.a(backtrace.o)
 .data          0x00000000006c1188        0x0 libc.a(backtracesymsfd.o)
 *fill*         0x00000000006c1188       0x18 
 .data          0x00000000006c11a0      0x620 libc.a(dl-support.o)
                0x00000000006c11a0                _dl_load_write_lock
                0x00000000006c11e0                _dl_load_lock
                0x00000000006c1208                _dl_make_stack_executable_hook
                0x00000000006c1210                _dl_stack_flags
                0x00000000006c1220                _dl_fpu_control
                0x00000000006c1224                _dl_correct_cache_id
                0x00000000006c1228                _dl_debug_fd
                0x00000000006c1230                _dl_pagesize
                0x00000000006c1238                _dl_init_static_tls
                0x00000000006c1240                _dl_initial_searchlist
                0x00000000006c1258                _dl_load_adds
                0x00000000006c1260                _dl_nns
                0x00000000006c1280                _dl_ns
                0x00000000006c17b8                _dl_use_load_bias
 .data          0x00000000006c17c0        0x0 libc.a(dl-addr.o)
 .data          0x00000000006c17c0        0x0 libc.a(enbl-secure.o)
 .data          0x00000000006c17c0        0x0 libc.a(dl-sysdep.o)
 .data          0x00000000006c17c0        0x4 libc.a(init-first.o)
                0x00000000006c17c0                __libc_multiple_libcs
 .data          0x00000000006c17c4        0x0 libc.a(sysdep.o)
 .data          0x00000000006c17c4        0x0 libc.a(init-arch.o)
 .data          0x00000000006c17c4        0x0 libc.a(gconv_open.o)
 .data          0x00000000006c17c4        0x0 libc.a(gconv.o)
 .data          0x00000000006c17c4        0x0 libc.a(gconv_close.o)
 .data          0x00000000006c17c4        0x0 libc.a(gconv_db.o)
 *fill*         0x00000000006c17c4       0x1c 
 .data          0x00000000006c17e0      0x2a0 libc.a(gconv_conf.o)
 .data          0x00000000006c1a80        0x0 libc.a(gconv_builtin.o)
 .data          0x00000000006c1a80        0x0 libc.a(gconv_simple.o)
 .data          0x00000000006c1a80        0x0 libc.a(gconv_trans.o)
 .data          0x00000000006c1a80        0x0 libc.a(gconv_cache.o)
 .data          0x00000000006c1a80        0x0 libc.a(gconv_dl.o)
 .data          0x00000000006c1a80        0x0 libc.a(catnames.o)
 .data          0x00000000006c1a80        0x0 libc.a(setlocale.o)
 .data          0x00000000006c1a80        0x0 libc.a(findlocale.o)
 .data          0x00000000006c1a80        0x0 libc.a(loadlocale.o)
 .data          0x00000000006c1a80        0x0 libc.a(loadarchive.o)
 .data          0x00000000006c1a80        0x0 libc.a(C-ctype.o)
 .data          0x00000000006c1a80        0x0 libc.a(SYS_libc.o)
 .data          0x00000000006c1a80        0x0 libc.a(C_name.o)
 .data          0x00000000006c1a80        0x0 libc.a(xlocale.o)
 .data          0x00000000006c1a80       0xe8 libc.a(global-locale.o)
                0x00000000006c1a80                _nl_global_locale
 .data          0x00000000006c1b68        0x0 libc.a(lc-ctype.o)
 .data          0x00000000006c1b68        0x0 libc.a(C-messages.o)
 .data          0x00000000006c1b68        0x0 libc.a(C-monetary.o)
 .data          0x00000000006c1b68        0x0 libc.a(C-numeric.o)
 .data          0x00000000006c1b68        0x0 libc.a(C-paper.o)
 .data          0x00000000006c1b68        0x0 libc.a(C-name.o)
 .data          0x00000000006c1b68        0x0 libc.a(C-address.o)
 .data          0x00000000006c1b68        0x0 libc.a(C-telephone.o)
 .data          0x00000000006c1b68        0x0 libc.a(C-measurement.o)
 .data          0x00000000006c1b68        0x0 libc.a(C-identification.o)
 .data          0x00000000006c1b68        0x0 libc.a(C-collate.o)
 .data          0x00000000006c1b68        0x0 libc.a(localename.o)
 .data          0x00000000006c1b68        0x0 libc.a(ctype-info.o)
 .data          0x00000000006c1b68        0x0 libc.a(setfpucw.o)
 .data          0x00000000006c1b68        0x2 libc.a(fpu_control.o)
                0x00000000006c1b68                __fpu_control
 .data          0x00000000006c1b6a        0x0 libc.a(setjmp.o)
 .data          0x00000000006c1b6a        0x0 libc.a(sigjmp.o)
 .data          0x00000000006c1b6a        0x0 libc.a(raise.o)
 .data          0x00000000006c1b6a        0x0 libc.a(sigaction.o)
 .data          0x00000000006c1b6a        0x0 libc.a(sigprocmask.o)
 .data          0x00000000006c1b6a        0x0 libc.a(qsort.o)
 .data          0x00000000006c1b6a        0x0 libc.a(setenv.o)
 .data          0x00000000006c1b6a        0x0 libc.a(secure-getenv.o)
 .data          0x00000000006c1b6a        0x0 libc.a(strtol.o)
 .data          0x00000000006c1b6a        0x0 libc.a(strtol_l.o)
 .data          0x00000000006c1b6a        0x0 libc.a(_itoa.o)
 .data          0x00000000006c1b6a        0x0 libc.a(itoa-digits.o)
 .data          0x00000000006c1b6a        0x0 libc.a(itoa-udigits.o)
 .data          0x00000000006c1b6a        0x0 libc.a(vfprintf.o)
 .data          0x00000000006c1b6a        0x0 libc.a(printf_fp.o)
 .data          0x00000000006c1b6a        0x0 libc.a(reg-printf.o)
 .data          0x00000000006c1b6a        0x0 libc.a(printf_fphex.o)
 .data          0x00000000006c1b6a        0x0 libc.a(reg-modifier.o)
 *fill*         0x00000000006c1b6a        0x6 
 .data          0x00000000006c1b70        0x4 libc.a(reg-type.o)
 .data          0x00000000006c1b74        0x0 libc.a(fprintf.o)
 .data          0x00000000006c1b74        0x0 libc.a(sscanf.o)
 .data          0x00000000006c1b74        0x0 libc.a(funlockfile.o)
 .data          0x00000000006c1b74        0x0 libc.a(vfwprintf.o)
 .data          0x00000000006c1b74        0x0 libc.a(printf-parsemb.o)
 .data          0x00000000006c1b74        0x0 libc.a(printf-parsewc.o)
 .data          0x00000000006c1b74        0x0 libc.a(filedoalloc.o)
 .data          0x00000000006c1b74        0x0 libc.a(iofputs.o)
 .data          0x00000000006c1b74        0x0 libc.a(iofwrite.o)
 .data          0x00000000006c1b74        0x0 libc.a(iogetdelim.o)
 .data          0x00000000006c1b74        0x0 libc.a(iogetline.o)
 .data          0x00000000006c1b74        0x0 libc.a(iopadn.o)
 .data          0x00000000006c1b74        0x0 libc.a(iovsscanf.o)
 .data          0x00000000006c1b74        0x0 libc.a(iofwide.o)
 .data          0x00000000006c1b74        0x0 libc.a(wfiledoalloc.o)
 .data          0x00000000006c1b74        0x0 libc.a(iowpadn.o)
 .data          0x00000000006c1b74        0x0 libc.a(wgenops.o)
 .data          0x00000000006c1b74        0x0 libc.a(strndup.o)
 .data          0x00000000006c1b74        0x0 libc.a(_strerror.o)
 .data          0x00000000006c1b74        0x0 libc.a(strnlen.o)
 .data          0x00000000006c1b74        0x0 libc.a(strrchr.o)
 .data          0x00000000006c1b74        0x0 libc.a(argz-ctsep.o)
 .data          0x00000000006c1b74        0x0 libc.a(argz-addsep.o)
 .data          0x00000000006c1b74        0x0 libc.a(wmemcpy.o)
 .data          0x00000000006c1b74        0x0 libc.a(wmemset.o)
 .data          0x00000000006c1b74        0x0 libc.a(wcslen.o)
 .data          0x00000000006c1b74        0x0 libc.a(wmemmove.o)
 .data          0x00000000006c1b74        0x0 libc.a(btowc.o)
 .data          0x00000000006c1b74        0x0 libc.a(wcrtomb.o)
 .data          0x00000000006c1b74        0x0 libc.a(mbsrtowcs.o)
 .data          0x00000000006c1b74        0x0 libc.a(wcsrtombs.o)
 .data          0x00000000006c1b74        0x0 libc.a(wcsnlen.o)
 .data          0x00000000006c1b74        0x0 libc.a(wcschrnul.o)
 .data          0x00000000006c1b74        0x0 libc.a(mbsrtowcs_l.o)
 .data          0x00000000006c1b74        0x0 libc.a(time.o)
 *fill*         0x00000000006c1b74        0xc 
 .data          0x00000000006c1b80       0x10 libc.a(tzset.o)
                0x00000000006c1b80                __tzname
                0x00000000006c1b80                tzname
 .data          0x00000000006c1b90        0x0 libc.a(tzfile.o)
 .data          0x00000000006c1b90        0x0 libc.a(opendir.o)
 .data          0x00000000006c1b90        0x0 libc.a(closedir.o)
 .data          0x00000000006c1b90        0x0 libc.a(readdir.o)
 .data          0x00000000006c1b90        0x0 libc.a(rewinddir.o)
 .data          0x00000000006c1b90        0x0 libc.a(getdents.o)
 .data          0x00000000006c1b90        0x0 libc.a(fdopendir.o)
 .data          0x00000000006c1b90        0x0 libc.a(uname.o)
 .data          0x00000000006c1b90        0x0 libc.a(fork.o)
 .data          0x00000000006c1b90        0x0 libc.a(getuid.o)
 .data          0x00000000006c1b90        0x0 libc.a(geteuid.o)
 .data          0x00000000006c1b90        0x0 libc.a(getgid.o)
 .data          0x00000000006c1b90        0x0 libc.a(getegid.o)
 .data          0x00000000006c1b90        0x0 libc.a(lxstat.o)
 .data          0x00000000006c1b90        0x0 libc.a(fxstatat.o)
 .data          0x00000000006c1b90        0x0 libc.a(openat.o)
 .data          0x00000000006c1b90        0x0 libc.a(access.o)
 .data          0x00000000006c1b90        0x0 libc.a(isatty.o)
 .data          0x00000000006c1b90        0x0 libc.a(tcgetattr.o)
 .data          0x00000000006c1b90        0x0 libc.a(brk.o)
 .data          0x00000000006c1b90        0x0 libc.a(writev.o)
 .data          0x00000000006c1b90        0x0 libc.a(wctrans.o)
 .data          0x00000000006c1b90        0x0 libc.a(towctrans.o)
 .data          0x00000000006c1b90        0x0 libc.a(readonly-area.o)
 .data          0x00000000006c1b90        0x0 libc.a(dl-load.o)
 .data          0x00000000006c1b90        0x0 libc.a(dl-lookup.o)
 .data          0x00000000006c1b90        0x0 libc.a(dl-object.o)
 .data          0x00000000006c1b90        0x0 libc.a(dl-reloc.o)
 .data          0x00000000006c1b90        0x0 libc.a(dl-hwcaps.o)
 .data          0x00000000006c1b90        0x0 libc.a(dl-error.o)
 .data          0x00000000006c1b90        0x0 libc.a(dl-debug.o)
 .data          0x00000000006c1b90        0x0 libc.a(dl-misc.o)
 .data          0x00000000006c1b90        0x0 libc.a(dl-tls.o)
 .data          0x00000000006c1b90        0x0 libc.a(dl-origin.o)
 .data          0x00000000006c1b90        0x0 libc.a(dl-scope.o)
 .data          0x00000000006c1b90        0x0 libc.a(dl-execstack.o)
 .data          0x00000000006c1b90        0x0 libc.a(dl-open.o)
 .data          0x00000000006c1b90        0x0 libc.a(dl-close.o)
 .data          0x00000000006c1b90        0x4 libc.a(dl-trampoline.o)
 .data          0x00000000006c1b94        0x0 libc.a(dl-cache.o)
 .data          0x00000000006c1b94        0x0 libc.a(dl-profstub.o)
 *fill*         0x00000000006c1b94        0xc 
 .data          0x00000000006c1ba0       0x18 libc.a(dl-libc.o)
 .data          0x00000000006c1bb8        0x8 libc.a(dl-tsd.o)
                0x00000000006c1bb8                _dl_error_catch_tsd
 .data          0x00000000006c1bc0        0x0 libc.a(tlsdesc.o)
 .data          0x00000000006c1bc0        0x0 libc.a(dl-tlsdesc.o)
 .data          0x00000000006c1bc0        0x0 libc.a(C-time.o)
 .data          0x00000000006c1bc0        0x0 libc.a(lc-monetary.o)
 .data          0x00000000006c1bc0        0x0 libc.a(lc-numeric.o)
 .data          0x00000000006c1bc0        0x0 libc.a(s_isinf.o)
 .data          0x00000000006c1bc0        0x0 libc.a(s_isnan.o)
 .data          0x00000000006c1bc0        0x0 libc.a(s_isinfl.o)
 .data          0x00000000006c1bc0        0x0 libc.a(s_isnanl.o)
 .data          0x00000000006c1bc0        0x0 libc.a(__longjmp.o)
 .data          0x00000000006c1bc0        0x0 libc.a(cmp.o)
 .data          0x00000000006c1bc0        0x0 libc.a(divrem.o)
 .data          0x00000000006c1bc0        0x0 libc.a(lshift.o)
 .data          0x00000000006c1bc0        0x0 libc.a(rshift.o)
 .data          0x00000000006c1bc0        0x0 libc.a(mul.o)
 .data          0x00000000006c1bc0        0x0 libc.a(mul_1.o)
 .data          0x00000000006c1bc0        0x0 libc.a(mul_n.o)
 .data          0x00000000006c1bc0        0x0 libc.a(sub_n.o)
 .data          0x00000000006c1bc0        0x0 libc.a(submul_1.o)
 .data          0x00000000006c1bc0        0x0 libc.a(dbl2mpn.o)
 .data          0x00000000006c1bc0        0x0 libc.a(ldbl2mpn.o)
 .data          0x00000000006c1bc0        0x0 libc.a(fpioconst.o)
 .data          0x00000000006c1bc0        0x0 libc.a(itowa-digits.o)
 .data          0x00000000006c1bc0        0x0 libc.a(vfscanf.o)
 .data          0x00000000006c1bc0        0x0 libc.a(errlist.o)
 .data          0x00000000006c1bc0        0x0 libc.a(fileno.o)
 .data          0x00000000006c1bc0        0x0 libc.a(fseek.o)
 .data          0x00000000006c1bc0        0x0 libc.a(ftello.o)
 .data          0x00000000006c1bc0        0x0 libc.a(iofread_u.o)
 .data          0x00000000006c1bc0       0x68 libc.a(sdlerror.o)
 .data          0x00000000006c1c28        0x0 libc.a(sdladdr.o)
 .data          0x00000000006c1c28        0x0 libc.a(sdladdr1.o)
 .data          0x00000000006c1c28        0x0 libc.a(sdlinfo.o)
 .data          0x00000000006c1c28        0x0 libc.a(sdlmopen.o)
 .data          0x00000000006c1c28        0x0 libc.a(strerror.o)
 .data          0x00000000006c1c28        0x0 libc.a(strsep.o)
 .data          0x00000000006c1c28        0x0 libc.a(mbrlen.o)
 .data          0x00000000006c1c28        0x0 libc.a(mbrtowc.o)
 .data          0x00000000006c1c28        0x0 libc.a(offtime.o)
 .data          0x00000000006c1c28        0x0 libc.a(localtime.o)
 .data          0x00000000006c1c28        0x0 libc.a(mktime.o)
 .data          0x00000000006c1c28        0x0 libc.a(getpid.o)
 .data          0x00000000006c1c28        0x0 libc.a(dl-deps.o)
 .data          0x00000000006c1c28        0x0 libc.a(dl-runtime.o)
 .data          0x00000000006c1c28        0x0 libc.a(dl-init.o)
 .data          0x00000000006c1c28        0x0 libc.a(dl-fini.o)
 .data          0x00000000006c1c28        0x0 libc.a(dl-version.o)
 .data          0x00000000006c1c28        0x0 libc.a(dl-profile.o)
 .data          0x00000000006c1c28        0x0 libc.a(add_n.o)
 .data          0x00000000006c1c28        0x0 libc.a(addmul_1.o)
 .data          0x00000000006c1c28        0x0 libc.a(strtof.o)
 .data          0x00000000006c1c28        0x0 libc.a(strtod.o)
 .data          0x00000000006c1c28        0x0 libc.a(strtold.o)
 .data          0x00000000006c1c28        0x0 libc.a(strtof_l.o)
 .data          0x00000000006c1c28        0x0 libc.a(strtod_l.o)
 .data          0x00000000006c1c28        0x0 libc.a(strtold_l.o)
 .data          0x00000000006c1c28        0x0 libc.a(tens_in_limb.o)
 .data          0x00000000006c1c28        0x0 libc.a(ioseekoff.o)
 .data          0x00000000006c1c28        0x0 libc.a(sdlopen.o)
 .data          0x00000000006c1c28        0x0 libc.a(sdlclose.o)
 .data          0x00000000006c1c28        0x0 libc.a(sdlsym.o)
 .data          0x00000000006c1c28        0x0 libc.a(sdlvsym.o)
 .data          0x00000000006c1c28        0x0 libc.a(strpbrk.o)
 .data          0x00000000006c1c28        0x0 libc.a(strncase_l.o)
 .data          0x00000000006c1c28        0x0 libc.a(strncase_l-ssse3.o)
 .data          0x00000000006c1c28        0x0 libc.a(strncase_l-nonascii.o)
 .data          0x00000000006c1c28        0x0 libc.a(profil.o)
 .data          0x00000000006c1c28        0x0 libc.a(prof-freq.o)
 .data          0x00000000006c1c28        0x0 libc.a(dl-sym.o)
 .data          0x00000000006c1c28        0x0 libc.a(mpn2flt.o)
 .data          0x00000000006c1c28        0x0 libc.a(mpn2dbl.o)
 .data          0x00000000006c1c28        0x0 libc.a(mpn2ldbl.o)
 .data          0x00000000006c1c28        0x0 libc.a(setitimer.o)
 .data          0x00000000006c1c28        0x0 libgcc_eh.a(unwind-dw2.o)
 .data          0x00000000006c1c28        0x8 libgcc_eh.a(unwind-dw2-fde-dip.o)
 .data          0x00000000006c1c30        0x0 libgcc_eh.a(unwind-c.o)
 .data          0x00000000006c1c30        0x0 libc.a(dl-iteratephdr.o)
 .data          0x00000000006c1c30        0x0 crtend.o
 .data          0x00000000006c1c30        0x0 crtn.o

.tm_clone_table
                0x00000000006c1c30        0x0
 .tm_clone_table
                0x00000000006c1c30        0x0 crtbeginT.o
 .tm_clone_table
                0x00000000006c1c30        0x0 crtend.o
                0x00000000006c1c30                __TMC_END__

.data1
 *(.data1)
                0x00000000006c1c30                _edata = .
                0x00000000006c1c30                PROVIDE (edata, .)
                0x00000000006c1c30                . = .
                0x00000000006c1c30                __bss_start = .

.bss            0x00000000006c1c40     0x2558
 *(.dynbss)
 *(.bss .bss.* .gnu.linkonce.b.*)
 .bss           0x00000000006c1c40        0x0 crt1.o
 .bss           0x00000000006c1c40        0x0 crti.o
 .bss           0x00000000006c1c40       0x50 crtbeginT.o
 .bss           0x00000000006c1c90        0x0 hello.o
 .bss           0x00000000006c1c90        0x0 libc.a(libc-start.o)
 .bss           0x00000000006c1c90        0x0 libc.a(check_fds.o)
 *fill*         0x00000000006c1c90       0x10 
 .bss           0x00000000006c1ca0      0x410 libc.a(libc-tls.o)
 .bss           0x00000000006c20b0        0x0 libc.a(elf-init.o)
 .bss           0x00000000006c20b0        0x0 libc.a(errno.o)
 .bss           0x00000000006c20b0        0x0 libc.a(assert.o)
 .bss           0x00000000006c20b0        0x0 libc.a(dcgettext.o)
 *fill*         0x00000000006c20b0       0x10 
 .bss           0x00000000006c20c0       0xd8 libc.a(dcigettext.o)
                0x00000000006c20c0                _nl_state_lock
 *fill*         0x00000000006c2198        0x8 
 .bss           0x00000000006c21a0       0x48 libc.a(finddomain.o)
 *fill*         0x00000000006c21e8        0x8 
 .bss           0x00000000006c21f0       0x10 libc.a(loadmsgcat.o)
 .bss           0x00000000006c2200       0x34 libc.a(localealias.o)
 .bss           0x00000000006c2234        0x0 libc.a(l10nflist.o)
 .bss           0x00000000006c2234        0x0 libc.a(explodename.o)
 .bss           0x00000000006c2234        0x0 libc.a(plural.o)
 .bss           0x00000000006c2234        0x0 libc.a(plural-exp.o)
 .bss           0x00000000006c2234        0x0 libc.a(hash-string.o)
 .bss           0x00000000006c2234        0x0 libc.a(bsd-_setjmp.o)
 *fill*         0x00000000006c2234        0xc 
 .bss           0x00000000006c2240       0x24 libc.a(abort.o)
                0x00000000006c2240                __abort_msg
 *fill*         0x00000000006c2264        0xc 
 .bss           0x00000000006c2270       0x14 libc.a(msort.o)
 .bss           0x00000000006c2284        0x0 libc.a(getenv.o)
 .bss           0x00000000006c2284        0x0 libc.a(exit.o)
 *fill*         0x00000000006c2284       0x1c 
 .bss           0x00000000006c22a0      0x414 libc.a(cxa_atexit.o)
 .bss           0x00000000006c26b4        0x0 libc.a(strtoul.o)
 .bss           0x00000000006c26b4        0x0 libc.a(strtoul_l.o)
 .bss           0x00000000006c26b4        0x0 libc.a(grouping.o)
 .bss           0x00000000006c26b4        0x0 libc.a(asprintf.o)
 .bss           0x00000000006c26b4        0x0 libc.a(fxprintf.o)
 .bss           0x00000000006c26b4        0x0 libc.a(iofclose.o)
 .bss           0x00000000006c26b4        0x0 libc.a(iofflush.o)
 .bss           0x00000000006c26b4        0x0 libc.a(iofopen.o)
 .bss           0x00000000006c26b4        0x0 libc.a(ioputs.o)
 .bss           0x00000000006c26b4        0x0 libc.a(vasprintf.o)
 .bss           0x00000000006c26b4        0x0 libc.a(fcloseall.o)
 .bss           0x00000000006c26b4        0x0 libc.a(libc_fatal.o)
 .bss           0x00000000006c26b4        0x0 libc.a(iofgets_u.o)
 .bss           0x00000000006c26b4        0x0 libc.a(wfileops.o)
 .bss           0x00000000006c26b4        0x0 libc.a(fileops.o)
 *fill*         0x00000000006c26b4        0xc 
 .bss           0x00000000006c26c0       0x50 libc.a(genops.o)
 .bss           0x00000000006c2710       0x30 libc.a(stdfiles.o)
 .bss           0x00000000006c2740        0x0 libc.a(stdio.o)
 .bss           0x00000000006c2740        0x0 libc.a(strops.o)
 .bss           0x00000000006c2740      0x148 libc.a(malloc.o)
                0x00000000006c2740                __after_morecore_hook
                0x00000000006c2750                __free_hook
                0x00000000006c2760                __malloc_initialize_hook
 .bss           0x00000000006c2888        0x0 libc.a(morecore.o)
 .bss           0x00000000006c2888        0x0 libc.a(strchr.o)
 .bss           0x00000000006c2888        0x0 libc.a(strcmp.o)
 .bss           0x00000000006c2888        0x0 libc.a(strcpy.o)
 .bss           0x00000000006c2888        0x0 libc.a(strdup.o)
 .bss           0x00000000006c2888        0x0 libc.a(strlen.o)
 .bss           0x00000000006c2888        0x0 libc.a(strncmp.o)
 .bss           0x00000000006c2888        0x0 libc.a(strstr.o)
 .bss           0x00000000006c2888        0x0 libc.a(memchr.o)
 .bss           0x00000000006c2888        0x0 libc.a(memcmp.o)
 .bss           0x00000000006c2888        0x0 libc.a(memmove.o)
 .bss           0x00000000006c2888        0x0 libc.a(memset.o)
 .bss           0x00000000006c2888        0x0 libc.a(mempcpy.o)
 .bss           0x00000000006c2888        0x0 libc.a(stpcpy.o)
 .bss           0x00000000006c2888        0x0 libc.a(strcasecmp_l.o)
 .bss           0x00000000006c2888        0x0 libc.a(memcpy.o)
 .bss           0x00000000006c2888        0x0 libc.a(wordcopy.o)
 .bss           0x00000000006c2888        0x0 libc.a(rawmemchr.o)
 .bss           0x00000000006c2888        0x0 libc.a(strchrnul.o)
 .bss           0x00000000006c2888        0x0 libc.a(argz-count.o)
 .bss           0x00000000006c2888        0x0 libc.a(argz-stringify.o)
 .bss           0x00000000006c2888        0x0 libc.a(strcmp-ssse3.o)
 .bss           0x00000000006c2888        0x0 libc.a(strcmp-sse2-unaligned.o)
 .bss           0x00000000006c2888        0x0 libc.a(memcmp-sse4.o)
 .bss           0x00000000006c2888        0x0 libc.a(memmove-ssse3.o)
 .bss           0x00000000006c2888        0x0 libc.a(memmove-ssse3-back.o)
 .bss           0x00000000006c2888        0x0 libc.a(strcasecmp_l-ssse3.o)
 .bss           0x00000000006c2888        0x0 libc.a(strcpy-ssse3.o)
 .bss           0x00000000006c2888        0x0 libc.a(stpcpy-ssse3.o)
 .bss           0x00000000006c2888        0x0 libc.a(strcpy-sse2-unaligned.o)
 .bss           0x00000000006c2888        0x0 libc.a(stpcpy-sse2-unaligned.o)
 .bss           0x00000000006c2888        0x0 libc.a(strchr-sse2-no-bsf.o)
 .bss           0x00000000006c2888        0x0 libc.a(memcmp-ssse3.o)
 .bss           0x00000000006c2888        0x0 libc.a(strstr-sse2-unaligned.o)
 .bss           0x00000000006c2888        0x0 libc.a(cacheinfo.o)
 .bss           0x00000000006c2888        0x0 libc.a(strcasecmp_l-nonascii.o)
 .bss           0x00000000006c2888        0x0 libc.a(wmempcpy.o)
 .bss           0x00000000006c2888        0x0 libc.a(wcsmbsload.o)
 .bss           0x00000000006c2888        0x0 libc.a(_exit.o)
 .bss           0x00000000006c2888        0x0 libc.a(sysconf.o)
 .bss           0x00000000006c2888        0x0 libc.a(sched_yield.o)
 .bss           0x00000000006c2888        0x0 libc.a(get_child_max.o)
 .bss           0x00000000006c2888        0x8 libc.a(environ.o)
                0x00000000006c2888                _environ
                0x00000000006c2888                __environ
                0x00000000006c2888                environ
 .bss           0x00000000006c2890        0x0 libc.a(exit-thread.o)
 .bss           0x00000000006c2890        0x0 libc.a(xstat.o)
 .bss           0x00000000006c2890        0x0 libc.a(fxstat.o)
 .bss           0x00000000006c2890        0x0 libc.a(open.o)
 .bss           0x00000000006c2890        0x0 libc.a(read.o)
 .bss           0x00000000006c2890        0x0 libc.a(write.o)
 .bss           0x00000000006c2890        0x4 libc.a(fcntl.o)
 .bss           0x00000000006c2894        0x0 libc.a(close.o)
 .bss           0x00000000006c2894        0x0 libc.a(getcwd.o)
 .bss           0x00000000006c2894        0x0 libc.a(getrlimit.o)
 .bss           0x00000000006c2894        0x0 libc.a(sbrk.o)
 .bss           0x00000000006c2894        0x0 libc.a(getpagesize.o)
 .bss           0x00000000006c2894        0x0 libc.a(getdtsz.o)
 .bss           0x00000000006c2894        0x0 libc.a(mmap.o)
 .bss           0x00000000006c2894        0x0 libc.a(munmap.o)
 .bss           0x00000000006c2894        0x0 libc.a(mprotect.o)
 .bss           0x00000000006c2894        0x0 libc.a(madvise.o)
 .bss           0x00000000006c2894        0x0 libc.a(tsearch.o)
 *fill*         0x00000000006c2894        0xc 
 .bss           0x00000000006c28a0       0x10 libc.a(getsysstats.o)
 .bss           0x00000000006c28b0        0x0 libc.a(getclktck.o)
 .bss           0x00000000006c28b0        0x0 libc.a(init-misc.o)
 .bss           0x00000000006c28b0        0x0 libc.a(llseek.o)
 .bss           0x00000000006c28b0        0x0 libc.a(mremap.o)
 .bss           0x00000000006c28b0        0x0 libc.a(alloca_cutoff.o)
 .bss           0x00000000006c28b0        0x0 libc.a(libc-lowlevellock.o)
 .bss           0x00000000006c28b0        0x0 libc.a(libc-cancellation.o)
 *fill*         0x00000000006c28b0       0x10 
 .bss           0x00000000006c28c0      0x928 libc.a(register-atfork.o)
                0x00000000006c28c0                __fork_lock
 .bss           0x00000000006c31e8        0x0 libc.a(libc_multiple_threads.o)
 .bss           0x00000000006c31e8        0x0 libc.a(chk_fail.o)
 .bss           0x00000000006c31e8        0x0 libc.a(fortify_fail.o)
 .bss           0x00000000006c31e8        0x0 libc.a(backtrace.o)
 .bss           0x00000000006c31e8        0x0 libc.a(backtracesymsfd.o)
 *fill*         0x00000000006c31e8        0x8 
 .bss           0x00000000006c31f0       0x30 libc.a(dl-support.o)
                0x00000000006c31f0                _dl_hwcap_mask
                0x00000000006c3200                _dl_hwcap2
                0x00000000006c3210                _dl_hwcap
 .bss           0x00000000006c3220        0x0 libc.a(dl-addr.o)
 .bss           0x00000000006c3220        0x0 libc.a(enbl-secure.o)
 .bss           0x00000000006c3220        0x0 libc.a(dl-sysdep.o)
 .bss           0x00000000006c3220        0x0 libc.a(init-first.o)
 .bss           0x00000000006c3220        0x0 libc.a(sysdep.o)
 .bss           0x00000000006c3220        0x0 libc.a(init-arch.o)
 .bss           0x00000000006c3220        0x0 libc.a(gconv_open.o)
 .bss           0x00000000006c3220        0x0 libc.a(gconv.o)
 .bss           0x00000000006c3220        0x0 libc.a(gconv_close.o)
 .bss           0x00000000006c3220       0x18 libc.a(gconv_db.o)
 *fill*         0x00000000006c3238        0x8 
 .bss           0x00000000006c3240        0x8 libc.a(gconv_conf.o)
 .bss           0x00000000006c3248        0x0 libc.a(gconv_builtin.o)
 .bss           0x00000000006c3248        0x0 libc.a(gconv_simple.o)
 .bss           0x00000000006c3248       0x10 libc.a(gconv_trans.o)
 *fill*         0x00000000006c3258        0x8 
 .bss           0x00000000006c3260       0x28 libc.a(gconv_cache.o)
 *fill*         0x00000000006c3288        0x8 
 .bss           0x00000000006c3290       0x18 libc.a(gconv_dl.o)
 .bss           0x00000000006c32a8        0x0 libc.a(catnames.o)
 *fill*         0x00000000006c32a8       0x18 
 .bss           0x00000000006c32c0       0x38 libc.a(setlocale.o)
                0x00000000006c32c0                __libc_setlocale_lock
 .bss           0x00000000006c32f8        0x0 libc.a(findlocale.o)
 .bss           0x00000000006c32f8        0x0 libc.a(loadlocale.o)
 *fill*         0x00000000006c32f8        0x8 
 .bss           0x00000000006c3300       0xd8 libc.a(loadarchive.o)
 .bss           0x00000000006c33d8        0x0 libc.a(C-ctype.o)
 .bss           0x00000000006c33d8        0x0 libc.a(SYS_libc.o)
 .bss           0x00000000006c33d8        0x0 libc.a(C_name.o)
 .bss           0x00000000006c33d8        0x0 libc.a(xlocale.o)
 .bss           0x00000000006c33d8        0x0 libc.a(global-locale.o)
 .bss           0x00000000006c33d8        0x0 libc.a(lc-ctype.o)
 .bss           0x00000000006c33d8        0x0 libc.a(C-messages.o)
 .bss           0x00000000006c33d8        0x0 libc.a(C-monetary.o)
 .bss           0x00000000006c33d8        0x0 libc.a(C-numeric.o)
 .bss           0x00000000006c33d8        0x0 libc.a(C-paper.o)
 .bss           0x00000000006c33d8        0x0 libc.a(C-name.o)
 .bss           0x00000000006c33d8        0x0 libc.a(C-address.o)
 .bss           0x00000000006c33d8        0x0 libc.a(C-telephone.o)
 .bss           0x00000000006c33d8        0x0 libc.a(C-measurement.o)
 .bss           0x00000000006c33d8        0x0 libc.a(C-identification.o)
 .bss           0x00000000006c33d8        0x0 libc.a(C-collate.o)
 .bss           0x00000000006c33d8        0x0 libc.a(localename.o)
 .bss           0x00000000006c33d8        0x0 libc.a(ctype-info.o)
 .bss           0x00000000006c33d8        0x0 libc.a(setfpucw.o)
 .bss           0x00000000006c33d8        0x0 libc.a(fpu_control.o)
 .bss           0x00000000006c33d8        0x0 libc.a(setjmp.o)
 .bss           0x00000000006c33d8        0x0 libc.a(sigjmp.o)
 .bss           0x00000000006c33d8        0x0 libc.a(raise.o)
 .bss           0x00000000006c33d8        0x0 libc.a(sigaction.o)
 .bss           0x00000000006c33d8        0x0 libc.a(sigprocmask.o)
 .bss           0x00000000006c33d8        0x0 libc.a(qsort.o)
 *fill*         0x00000000006c33d8        0x8 
 .bss           0x00000000006c33e0       0x14 libc.a(setenv.o)
 .bss           0x00000000006c33f4        0x0 libc.a(secure-getenv.o)
 .bss           0x00000000006c33f4        0x0 libc.a(strtol.o)
 .bss           0x00000000006c33f4        0x0 libc.a(strtol_l.o)
 .bss           0x00000000006c33f4        0x0 libc.a(_itoa.o)
 .bss           0x00000000006c33f4        0x0 libc.a(itoa-digits.o)
 .bss           0x00000000006c33f4        0x0 libc.a(itoa-udigits.o)
 .bss           0x00000000006c33f4        0x0 libc.a(vfprintf.o)
 .bss           0x00000000006c33f4        0x0 libc.a(printf_fp.o)
 .bss           0x00000000006c33f4        0x4 libc.a(reg-printf.o)
 .bss           0x00000000006c33f8        0x0 libc.a(printf_fphex.o)
 *fill*         0x00000000006c33f8        0x8 
 .bss           0x00000000006c3400        0x8 libc.a(reg-modifier.o)
 .bss           0x00000000006c3408        0x4 libc.a(reg-type.o)
 .bss           0x00000000006c340c        0x0 libc.a(fprintf.o)
 .bss           0x00000000006c340c        0x0 libc.a(sscanf.o)
 .bss           0x00000000006c340c        0x0 libc.a(funlockfile.o)
 .bss           0x00000000006c340c        0x0 libc.a(vfwprintf.o)
 .bss           0x00000000006c340c        0x0 libc.a(printf-parsemb.o)
 .bss           0x00000000006c340c        0x0 libc.a(printf-parsewc.o)
 .bss           0x00000000006c340c        0x0 libc.a(filedoalloc.o)
 .bss           0x00000000006c340c        0x0 libc.a(iofputs.o)
 .bss           0x00000000006c340c        0x0 libc.a(iofwrite.o)
 .bss           0x00000000006c340c        0x0 libc.a(iogetdelim.o)
 .bss           0x00000000006c340c        0x0 libc.a(iogetline.o)
 .bss           0x00000000006c340c        0x0 libc.a(iopadn.o)
 .bss           0x00000000006c340c        0x0 libc.a(iovsscanf.o)
 .bss           0x00000000006c340c        0x0 libc.a(iofwide.o)
 .bss           0x00000000006c340c        0x0 libc.a(wfiledoalloc.o)
 .bss           0x00000000006c340c        0x0 libc.a(iowpadn.o)
 .bss           0x00000000006c340c        0x0 libc.a(wgenops.o)
 .bss           0x00000000006c340c        0x0 libc.a(strndup.o)
 .bss           0x00000000006c340c        0x0 libc.a(_strerror.o)
 .bss           0x00000000006c340c        0x0 libc.a(strnlen.o)
 .bss           0x00000000006c340c        0x0 libc.a(strrchr.o)
 .bss           0x00000000006c340c        0x0 libc.a(argz-ctsep.o)
 .bss           0x00000000006c340c        0x0 libc.a(argz-addsep.o)
 .bss           0x00000000006c340c        0x0 libc.a(wmemcpy.o)
 .bss           0x00000000006c340c        0x0 libc.a(wmemset.o)
 .bss           0x00000000006c340c        0x0 libc.a(wcslen.o)
 .bss           0x00000000006c340c        0x0 libc.a(wmemmove.o)
 .bss           0x00000000006c340c        0x0 libc.a(btowc.o)
 .bss           0x00000000006c340c        0x8 libc.a(wcrtomb.o)
 .bss           0x00000000006c3414        0x8 libc.a(mbsrtowcs.o)
 .bss           0x00000000006c341c        0x8 libc.a(wcsrtombs.o)
 .bss           0x00000000006c3424        0x0 libc.a(wcsnlen.o)
 .bss           0x00000000006c3424        0x0 libc.a(wcschrnul.o)
 .bss           0x00000000006c3424        0x0 libc.a(mbsrtowcs_l.o)
 .bss           0x00000000006c3424        0x0 libc.a(time.o)
 *fill*         0x00000000006c3424       0x1c 
 .bss           0x00000000006c3440       0xc4 libc.a(tzset.o)
                0x00000000006c3440                timezone
                0x00000000006c3440                __timezone
                0x00000000006c3450                __daylight
                0x00000000006c3450                daylight
 *fill*         0x00000000006c3504        0xc 
 .bss           0x00000000006c3510       0xc8 libc.a(tzfile.o)
 .bss           0x00000000006c35d8        0x0 libc.a(opendir.o)
 .bss           0x00000000006c35d8        0x0 libc.a(closedir.o)
 .bss           0x00000000006c35d8        0x0 libc.a(readdir.o)
 .bss           0x00000000006c35d8        0x0 libc.a(rewinddir.o)
 .bss           0x00000000006c35d8        0x0 libc.a(getdents.o)
 .bss           0x00000000006c35d8        0x0 libc.a(fdopendir.o)
 .bss           0x00000000006c35d8        0x0 libc.a(uname.o)
 .bss           0x00000000006c35d8        0x0 libc.a(fork.o)
 .bss           0x00000000006c35d8        0x0 libc.a(getuid.o)
 .bss           0x00000000006c35d8        0x0 libc.a(geteuid.o)
 .bss           0x00000000006c35d8        0x0 libc.a(getgid.o)
 .bss           0x00000000006c35d8        0x0 libc.a(getegid.o)
 .bss           0x00000000006c35d8        0x0 libc.a(lxstat.o)
 .bss           0x00000000006c35d8        0x0 libc.a(fxstatat.o)
 .bss           0x00000000006c35d8        0x0 libc.a(openat.o)
 .bss           0x00000000006c35d8        0x0 libc.a(access.o)
 .bss           0x00000000006c35d8        0x0 libc.a(isatty.o)
 .bss           0x00000000006c35d8        0x0 libc.a(tcgetattr.o)
 *fill*         0x00000000006c35d8        0x8 
 .bss           0x00000000006c35e0        0x8 libc.a(brk.o)
                0x00000000006c35e0                __curbrk
 .bss           0x00000000006c35e8        0x0 libc.a(writev.o)
 .bss           0x00000000006c35e8        0x0 libc.a(wctrans.o)
 .bss           0x00000000006c35e8        0x0 libc.a(towctrans.o)
 .bss           0x00000000006c35e8        0x0 libc.a(readonly-area.o)
 *fill*         0x00000000006c35e8        0x8 
 .bss           0x00000000006c35f0        0x8 libc.a(dl-load.o)
 .bss           0x00000000006c35f8        0x0 libc.a(dl-lookup.o)
 .bss           0x00000000006c35f8        0x0 libc.a(dl-object.o)
 .bss           0x00000000006c35f8        0x0 libc.a(dl-reloc.o)
 .bss           0x00000000006c35f8        0x0 libc.a(dl-hwcaps.o)
 *fill*         0x00000000006c35f8        0x8 
 .bss           0x00000000006c3600        0x8 libc.a(dl-error.o)
 .bss           0x00000000006c3608        0x0 libc.a(dl-debug.o)
 .bss           0x00000000006c3608        0x0 libc.a(dl-misc.o)
 .bss           0x00000000006c3608        0x0 libc.a(dl-tls.o)
 .bss           0x00000000006c3608        0x0 libc.a(dl-origin.o)
 .bss           0x00000000006c3608        0x0 libc.a(dl-scope.o)
 .bss           0x00000000006c3608        0x0 libc.a(dl-execstack.o)
 .bss           0x00000000006c3608        0x0 libc.a(dl-open.o)
 *fill*         0x00000000006c3608        0x8 
 .bss           0x00000000006c3610        0x4 libc.a(dl-close.o)
 .bss           0x00000000006c3614        0x0 libc.a(dl-trampoline.o)
 *fill*         0x00000000006c3614        0xc 
 .bss           0x00000000006c3620       0x28 libc.a(dl-cache.o)
 .bss           0x00000000006c3648        0x0 libc.a(dl-profstub.o)
 .bss           0x00000000006c3648        0x0 libc.a(dl-libc.o)
 .bss           0x00000000006c3648        0x0 libc.a(dl-tsd.o)
 .bss           0x00000000006c3648        0x0 libc.a(tlsdesc.o)
 .bss           0x00000000006c3648        0x0 libc.a(dl-tlsdesc.o)
 .bss           0x00000000006c3648        0x0 libc.a(C-time.o)
 .bss           0x00000000006c3648        0x0 libc.a(lc-monetary.o)
 .bss           0x00000000006c3648        0x0 libc.a(lc-numeric.o)
 .bss           0x00000000006c3648        0x0 libc.a(s_isinf.o)
 .bss           0x00000000006c3648        0x0 libc.a(s_isnan.o)
 .bss           0x00000000006c3648        0x0 libc.a(s_isinfl.o)
 .bss           0x00000000006c3648        0x0 libc.a(s_isnanl.o)
 .bss           0x00000000006c3648        0x0 libc.a(__longjmp.o)
 .bss           0x00000000006c3648        0x0 libc.a(cmp.o)
 .bss           0x00000000006c3648        0x0 libc.a(divrem.o)
 .bss           0x00000000006c3648        0x0 libc.a(lshift.o)
 .bss           0x00000000006c3648        0x0 libc.a(rshift.o)
 .bss           0x00000000006c3648        0x0 libc.a(mul.o)
 .bss           0x00000000006c3648        0x0 libc.a(mul_1.o)
 .bss           0x00000000006c3648        0x0 libc.a(mul_n.o)
 .bss           0x00000000006c3648        0x0 libc.a(sub_n.o)
 .bss           0x00000000006c3648        0x0 libc.a(submul_1.o)
 .bss           0x00000000006c3648        0x0 libc.a(dbl2mpn.o)
 .bss           0x00000000006c3648        0x0 libc.a(ldbl2mpn.o)
 .bss           0x00000000006c3648        0x0 libc.a(fpioconst.o)
 .bss           0x00000000006c3648        0x0 libc.a(itowa-digits.o)
 .bss           0x00000000006c3648        0x0 libc.a(vfscanf.o)
 .bss           0x00000000006c3648        0x0 libc.a(errlist.o)
 .bss           0x00000000006c3648        0x0 libc.a(fileno.o)
 .bss           0x00000000006c3648        0x0 libc.a(fseek.o)
 .bss           0x00000000006c3648        0x0 libc.a(ftello.o)
 .bss           0x00000000006c3648        0x0 libc.a(iofread_u.o)
 *fill*         0x00000000006c3648       0x18 
 .bss           0x00000000006c3660       0x60 libc.a(sdlerror.o)
 .bss           0x00000000006c36c0        0x0 libc.a(sdladdr.o)
 .bss           0x00000000006c36c0        0x0 libc.a(sdladdr1.o)
 .bss           0x00000000006c36c0        0x0 libc.a(sdlinfo.o)
 .bss           0x00000000006c36c0        0x0 libc.a(sdlmopen.o)
 .bss           0x00000000006c36c0        0x0 libc.a(strerror.o)
 .bss           0x00000000006c36c0        0x0 libc.a(strsep.o)
 .bss           0x00000000006c36c0        0x8 libc.a(mbrlen.o)
 .bss           0x00000000006c36c8        0x8 libc.a(mbrtowc.o)
 .bss           0x00000000006c36d0        0x0 libc.a(offtime.o)
 .bss           0x00000000006c36d0        0x0 libc.a(localtime.o)
 .bss           0x00000000006c36d0        0x8 libc.a(mktime.o)
 .bss           0x00000000006c36d8        0x0 libc.a(getpid.o)
 .bss           0x00000000006c36d8        0x0 libc.a(dl-deps.o)
 .bss           0x00000000006c36d8        0x0 libc.a(dl-runtime.o)
 .bss           0x00000000006c36d8        0x0 libc.a(dl-init.o)
 .bss           0x00000000006c36d8        0x0 libc.a(dl-fini.o)
 .bss           0x00000000006c36d8        0x0 libc.a(dl-version.o)
 *fill*         0x00000000006c36d8        0x8 
 .bss           0x00000000006c36e0       0x98 libc.a(dl-profile.o)
 .bss           0x00000000006c3778        0x0 libc.a(add_n.o)
 .bss           0x00000000006c3778        0x0 libc.a(addmul_1.o)
 .bss           0x00000000006c3778        0x0 libc.a(strtof.o)
 .bss           0x00000000006c3778        0x0 libc.a(strtod.o)
 .bss           0x00000000006c3778        0x0 libc.a(strtold.o)
 .bss           0x00000000006c3778        0x0 libc.a(strtof_l.o)
 .bss           0x00000000006c3778        0x0 libc.a(strtod_l.o)
 .bss           0x00000000006c3778        0x0 libc.a(strtold_l.o)
 .bss           0x00000000006c3778        0x0 libc.a(tens_in_limb.o)
 .bss           0x00000000006c3778        0x0 libc.a(ioseekoff.o)
 .bss           0x00000000006c3778        0x0 libc.a(sdlopen.o)
 .bss           0x00000000006c3778        0x0 libc.a(sdlclose.o)
 .bss           0x00000000006c3778        0x0 libc.a(sdlsym.o)
 .bss           0x00000000006c3778        0x0 libc.a(sdlvsym.o)
 .bss           0x00000000006c3778        0x0 libc.a(strpbrk.o)
 .bss           0x00000000006c3778        0x0 libc.a(strncase_l.o)
 .bss           0x00000000006c3778        0x0 libc.a(strncase_l-ssse3.o)
 .bss           0x00000000006c3778        0x0 libc.a(strncase_l-nonascii.o)
 *fill*         0x00000000006c3778        0x8 
 .bss           0x00000000006c3780       0xf8 libc.a(profil.o)
 .bss           0x00000000006c3878        0x0 libc.a(prof-freq.o)
 .bss           0x00000000006c3878        0x0 libc.a(dl-sym.o)
 .bss           0x00000000006c3878        0x0 libc.a(mpn2flt.o)
 .bss           0x00000000006c3878        0x0 libc.a(mpn2dbl.o)
 .bss           0x00000000006c3878        0x0 libc.a(mpn2ldbl.o)
 .bss           0x00000000006c3878        0x0 libc.a(setitimer.o)
 *fill*         0x00000000006c3878        0x8 
 .bss           0x00000000006c3880       0x22 libgcc_eh.a(unwind-dw2.o)
 *fill*         0x00000000006c38a2       0x1e 
 .bss           0x00000000006c38c0      0x1f8 libgcc_eh.a(unwind-dw2-fde-dip.o)
 .bss           0x00000000006c3ab8        0x0 libgcc_eh.a(unwind-c.o)
 .bss           0x00000000006c3ab8        0x0 libc.a(dl-iteratephdr.o)
 .bss           0x00000000006c3ab8        0x0 crtend.o
 .bss           0x00000000006c3ab8        0x0 crtn.o
 *(COMMON)
 *fill*         0x00000000006c3ab8        0x8 
 COMMON         0x00000000006c3ac0      0x440 libc.a(libc-tls.o)
                0x00000000006c3ac0                _dl_tls_static_used
                0x00000000006c3ac8                _dl_tls_static_align
                0x00000000006c3ad0                _dl_tls_max_dtv_idx
                0x00000000006c3ae0                _dl_static_dtv
                0x00000000006c3ee0                _dl_tls_dtv_slotinfo_list
                0x00000000006c3ee8                _dl_tls_dtv_gaps
                0x00000000006c3ef0                _dl_tls_generation
                0x00000000006c3ef8                _dl_tls_static_nelem
 COMMON         0x00000000006c3f00        0x8 libc.a(dcigettext.o)
                0x00000000006c3f00                _nl_domain_bindings
 COMMON         0x00000000006c3f08        0x4 libc.a(loadmsgcat.o)
                0x00000000006c3f08                _nl_msg_cat_cntr
 *fill*         0x00000000006c3f0c        0x4 
 COMMON         0x00000000006c3f10        0x8 libc.a(cxa_atexit.o)
                0x00000000006c3f10                __new_exitfn_called
 COMMON         0x00000000006c3f18        0x4 libc.a(cacheinfo.o)
                0x00000000006c3f18                __x86_prefetchw
 COMMON         0x00000000006c3f1c        0x4 libc.a(libc_multiple_threads.o)
                0x00000000006c3f1c                __libc_multiple_threads
 COMMON         0x00000000006c3f20       0xc8 libc.a(dl-support.o)
                0x00000000006c3f20                _dl_profile_output
                0x00000000006c3f28                _dl_platformlen
                0x00000000006c3f30                _dl_debug_mask
                0x00000000006c3f38                _dl_wait_lookup_done
                0x00000000006c3f40                _dl_profile
                0x00000000006c3f48                _dl_cpuclock_offset
                0x00000000006c3f50                _dl_bind_not
                0x00000000006c3f58                _dl_auxv
                0x00000000006c3f60                _dl_platform
                0x00000000006c3f68                _dl_lazy
                0x00000000006c3f70                _dl_sysinfo_map
                0x00000000006c3f78                _dl_inhibit_cache
                0x00000000006c3f80                _dl_phdr
                0x00000000006c3f88                _dl_scope_free_list
                0x00000000006c3f90                _dl_origin_path
                0x00000000006c3f98                _dl_clktck
                0x00000000006c3f9c                _dl_dynamic_weak
                0x00000000006c3fa0                _dl_sysinfo_dso
                0x00000000006c3fa8                _dl_init_all_dirs
                0x00000000006c3fb0                _dl_verbose
                0x00000000006c3fb8                _dl_phnum
                0x00000000006c3fc0                _dl_profile_map
                0x00000000006c3fc8                _dl_initfirst
                0x00000000006c3fd0                _dl_all_dirs
                0x00000000006c3fd8                _dl_osversion
                0x00000000006c3fe0                _dl_inhibit_rpath
 COMMON         0x00000000006c3fe8        0x4 libc.a(enbl-secure.o)
                0x00000000006c3fe8                __libc_enable_secure_decided
 *fill*         0x00000000006c3fec        0x4 
 COMMON         0x00000000006c3ff0       0x10 libc.a(init-first.o)
                0x00000000006c3ff0                __libc_argc
                0x00000000006c3ff8                __libc_argv
 COMMON         0x00000000006c4000       0x44 libc.a(init-arch.o)
                0x00000000006c4000                __cpu_features
 *fill*         0x00000000006c4044        0x4 
 COMMON         0x00000000006c4048       0x18 libc.a(gconv_db.o)
                0x00000000006c4048                __gconv_modules_db
                0x00000000006c4050                __gconv_lock
                0x00000000006c4058                __gconv_alias_db
 COMMON         0x00000000006c4060       0x18 libc.a(gconv_conf.o)
                0x00000000006c4060                __gconv_path_envvar
                0x00000000006c4068                __gconv_max_path_elem_len
                0x00000000006c4070                __gconv_path_elem
 *fill*         0x00000000006c4078        0x8 
 COMMON         0x00000000006c4080       0x68 libc.a(findlocale.o)
                0x00000000006c4080                _nl_locale_file_list
 COMMON         0x00000000006c40e8        0x8 libc.a(reg-printf.o)
                0x00000000006c40e8                __printf_function_table
 COMMON         0x00000000006c40f0        0x8 libc.a(reg-modifier.o)
                0x00000000006c40f0                __printf_modifier_table
 COMMON         0x00000000006c40f8        0x8 libc.a(tzset.o)
                0x00000000006c40f8                __tzname_cur_max
 COMMON         0x00000000006c4100        0x4 libc.a(tzfile.o)
                0x00000000006c4100                __use_tzfile
 *fill*         0x00000000006c4104        0x4 
 COMMON         0x00000000006c4108       0x10 libc.a(fork.o)
                0x00000000006c4108                __fork_generation_pointer
                0x00000000006c4110                __fork_handlers
 *fill*         0x00000000006c4118        0x8 
 COMMON         0x00000000006c4120       0x28 libc.a(dl-debug.o)
                0x00000000006c4120                _r_debug
 *fill*         0x00000000006c4148       0x18 
 COMMON         0x00000000006c4160       0x38 libc.a(localtime.o)
                0x00000000006c4160                _tmbuf
                0x00000000006c4198                . = ALIGN ((. != 0x0)?0x8:0x1)

__libc_freeres_ptrs
                0x00000000006c4198       0x30
                0x00000000006c4198                PROVIDE (__start___libc_freeres_ptrs, .)
 __libc_freeres_ptrs
                0x00000000006c4198       0x10 libc.a(localealias.o)
 __libc_freeres_ptrs
                0x00000000006c41a8        0x8 libc.a(reg-printf.o)
                0x00000000006c41a8                __printf_arginfo_table
 __libc_freeres_ptrs
                0x00000000006c41b0        0x8 libc.a(reg-type.o)
                0x00000000006c41b0                __printf_va_arg_table
 __libc_freeres_ptrs
                0x00000000006c41b8        0x8 libc.a(tzfile.o)
 __libc_freeres_ptrs
                0x00000000006c41c0        0x8 libc.a(strerror.o)
                0x00000000006c41c8                PROVIDE (__stop___libc_freeres_ptrs, .)

.lbss
 *(.dynlbss)
 *(.lbss .lbss.* .gnu.linkonce.lb.*)
 *(LARGE_COMMON)
                0x00000000006c41c8                . = ALIGN (0x8)
                0x00000000006c41c8                . = SEGMENT_START ("ldata-segment", .)

.lrodata
 *(.lrodata .lrodata.* .gnu.linkonce.lr.*)

.ldata          0x0000000000ac41c8        0x0
 *(.ldata .ldata.* .gnu.linkonce.l.*)
                0x0000000000ac41c8                . = ALIGN ((. != 0x0)?0x8:0x1)
                0x0000000000ac41c8                . = ALIGN (0x8)
                0x0000000000ac41c8                _end = .
                0x0000000000ac41c8                PROVIDE (end, .)
                0x0000000000ac41c8                . = DATA_SEGMENT_END (.)

.stab
 *(.stab)

.stabstr
 *(.stabstr)

.stab.excl
 *(.stab.excl)

.stab.exclstr
 *(.stab.exclstr)

.stab.index
 *(.stab.index)

.stab.indexstr
 *(.stab.indexstr)

.comment        0x0000000000000000       0x48
 *(.comment)
 .comment       0x0000000000000000       0x24 crtbeginT.o
                                         0x25 (size before relaxing)
 .comment       0x0000000000000024       0x25 hello.o
 .comment       0x0000000000000024       0x24 libc.a(libc-start.o)
                                         0x25 (size before relaxing)
 .comment       0x0000000000000048       0x25 libc.a(check_fds.o)
 .comment       0x0000000000000048       0x25 libc.a(libc-tls.o)
 .comment       0x0000000000000048       0x25 libc.a(elf-init.o)
 .comment       0x0000000000000048       0x25 libc.a(errno.o)
 .comment       0x0000000000000048       0x25 libc.a(assert.o)
 .comment       0x0000000000000048       0x25 libc.a(dcgettext.o)
 .comment       0x0000000000000048       0x25 libc.a(dcigettext.o)
 .comment       0x0000000000000048       0x25 libc.a(finddomain.o)
 .comment       0x0000000000000048       0x25 libc.a(loadmsgcat.o)
 .comment       0x0000000000000048       0x25 libc.a(localealias.o)
 .comment       0x0000000000000048       0x25 libc.a(l10nflist.o)
 .comment       0x0000000000000048       0x25 libc.a(explodename.o)
 .comment       0x0000000000000048       0x25 libc.a(plural.o)
 .comment       0x0000000000000048       0x25 libc.a(plural-exp.o)
 .comment       0x0000000000000048       0x25 libc.a(hash-string.o)
 .comment       0x0000000000000048       0x25 libc.a(abort.o)
 .comment       0x0000000000000048       0x25 libc.a(msort.o)
 .comment       0x0000000000000048       0x25 libc.a(getenv.o)
 .comment       0x0000000000000048       0x25 libc.a(exit.o)
 .comment       0x0000000000000048       0x25 libc.a(cxa_atexit.o)
 .comment       0x0000000000000048       0x25 libc.a(strtoul.o)
 .comment       0x0000000000000048       0x25 libc.a(strtoul_l.o)
 .comment       0x0000000000000048       0x25 libc.a(grouping.o)
 .comment       0x0000000000000048       0x25 libc.a(asprintf.o)
 .comment       0x0000000000000048       0x25 libc.a(fxprintf.o)
 .comment       0x0000000000000048       0x25 libc.a(iofclose.o)
 .comment       0x0000000000000048       0x25 libc.a(iofflush.o)
 .comment       0x0000000000000048       0x25 libc.a(iofopen.o)
 .comment       0x0000000000000048       0x25 libc.a(ioputs.o)
 .comment       0x0000000000000048       0x25 libc.a(vasprintf.o)
 .comment       0x0000000000000048       0x25 libc.a(fcloseall.o)
 .comment       0x0000000000000048       0x25 libc.a(libc_fatal.o)
 .comment       0x0000000000000048       0x25 libc.a(iofgets_u.o)
 .comment       0x0000000000000048       0x25 libc.a(wfileops.o)
 .comment       0x0000000000000048       0x25 libc.a(fileops.o)
 .comment       0x0000000000000048       0x25 libc.a(genops.o)
 .comment       0x0000000000000048       0x25 libc.a(stdfiles.o)
 .comment       0x0000000000000048       0x25 libc.a(stdio.o)
 .comment       0x0000000000000048       0x25 libc.a(strops.o)
 .comment       0x0000000000000048       0x25 libc.a(malloc.o)
 .comment       0x0000000000000048       0x25 libc.a(morecore.o)
 .comment       0x0000000000000048       0x25 libc.a(strdup.o)
 .comment       0x0000000000000048       0x25 libc.a(strstr.o)
 .comment       0x0000000000000048       0x25 libc.a(memmove.o)
 .comment       0x0000000000000048       0x25 libc.a(wordcopy.o)
 .comment       0x0000000000000048       0x25 libc.a(argz-count.o)
 .comment       0x0000000000000048       0x25 libc.a(argz-stringify.o)
 .comment       0x0000000000000048       0x25 libc.a(cacheinfo.o)
 .comment       0x0000000000000048       0x25 libc.a(strcasecmp_l-nonascii.o)
 .comment       0x0000000000000048       0x25 libc.a(wmempcpy.o)
 .comment       0x0000000000000048       0x25 libc.a(wcsmbsload.o)
 .comment       0x0000000000000048       0x25 libc.a(_exit.o)
 .comment       0x0000000000000048       0x25 libc.a(sysconf.o)
 .comment       0x0000000000000048       0x25 libc.a(get_child_max.o)
 .comment       0x0000000000000048       0x25 libc.a(environ.o)
 .comment       0x0000000000000048       0x25 libc.a(xstat.o)
 .comment       0x0000000000000048       0x25 libc.a(fxstat.o)
 .comment       0x0000000000000048       0x25 libc.a(fcntl.o)
 .comment       0x0000000000000048       0x25 libc.a(getcwd.o)
 .comment       0x0000000000000048       0x25 libc.a(sbrk.o)
 .comment       0x0000000000000048       0x25 libc.a(getpagesize.o)
 .comment       0x0000000000000048       0x25 libc.a(getdtsz.o)
 .comment       0x0000000000000048       0x25 libc.a(tsearch.o)
 .comment       0x0000000000000048       0x25 libc.a(getsysstats.o)
 .comment       0x0000000000000048       0x25 libc.a(getclktck.o)
 .comment       0x0000000000000048       0x25 libc.a(init-misc.o)
 .comment       0x0000000000000048       0x25 libc.a(alloca_cutoff.o)
 .comment       0x0000000000000048       0x25 libc.a(register-atfork.o)
 .comment       0x0000000000000048       0x25 libc.a(libc_multiple_threads.o)
 .comment       0x0000000000000048       0x25 libc.a(chk_fail.o)
 .comment       0x0000000000000048       0x25 libc.a(fortify_fail.o)
 .comment       0x0000000000000048       0x25 libc.a(backtrace.o)
 .comment       0x0000000000000048       0x25 libc.a(backtracesymsfd.o)
 .comment       0x0000000000000048       0x25 libc.a(dl-support.o)
 .comment       0x0000000000000048       0x25 libc.a(dl-addr.o)
 .comment       0x0000000000000048       0x25 libc.a(enbl-secure.o)
 .comment       0x0000000000000048       0x25 libc.a(dl-sysdep.o)
 .comment       0x0000000000000048       0x25 libc.a(init-first.o)
 .comment       0x0000000000000048       0x25 libc.a(init-arch.o)
 .comment       0x0000000000000048       0x25 libc.a(gconv_open.o)
 .comment       0x0000000000000048       0x25 libc.a(gconv.o)
 .comment       0x0000000000000048       0x25 libc.a(gconv_close.o)
 .comment       0x0000000000000048       0x25 libc.a(gconv_db.o)
 .comment       0x0000000000000048       0x25 libc.a(gconv_conf.o)
 .comment       0x0000000000000048       0x25 libc.a(gconv_builtin.o)
 .comment       0x0000000000000048       0x25 libc.a(gconv_simple.o)
 .comment       0x0000000000000048       0x25 libc.a(gconv_trans.o)
 .comment       0x0000000000000048       0x25 libc.a(gconv_cache.o)
 .comment       0x0000000000000048       0x25 libc.a(gconv_dl.o)
 .comment       0x0000000000000048       0x25 libc.a(catnames.o)
 .comment       0x0000000000000048       0x25 libc.a(setlocale.o)
 .comment       0x0000000000000048       0x25 libc.a(findlocale.o)
 .comment       0x0000000000000048       0x25 libc.a(loadlocale.o)
 .comment       0x0000000000000048       0x25 libc.a(loadarchive.o)
 .comment       0x0000000000000048       0x25 libc.a(C-ctype.o)
 .comment       0x0000000000000048       0x25 libc.a(SYS_libc.o)
 .comment       0x0000000000000048       0x25 libc.a(C_name.o)
 .comment       0x0000000000000048       0x25 libc.a(xlocale.o)
 .comment       0x0000000000000048       0x25 libc.a(global-locale.o)
 .comment       0x0000000000000048       0x25 libc.a(lc-ctype.o)
 .comment       0x0000000000000048       0x25 libc.a(C-messages.o)
 .comment       0x0000000000000048       0x25 libc.a(C-monetary.o)
 .comment       0x0000000000000048       0x25 libc.a(C-numeric.o)
 .comment       0x0000000000000048       0x25 libc.a(C-paper.o)
 .comment       0x0000000000000048       0x25 libc.a(C-name.o)
 .comment       0x0000000000000048       0x25 libc.a(C-address.o)
 .comment       0x0000000000000048       0x25 libc.a(C-telephone.o)
 .comment       0x0000000000000048       0x25 libc.a(C-measurement.o)
 .comment       0x0000000000000048       0x25 libc.a(C-identification.o)
 .comment       0x0000000000000048       0x25 libc.a(C-collate.o)
 .comment       0x0000000000000048       0x25 libc.a(localename.o)
 .comment       0x0000000000000048       0x25 libc.a(ctype-info.o)
 .comment       0x0000000000000048       0x25 libc.a(setfpucw.o)
 .comment       0x0000000000000048       0x25 libc.a(fpu_control.o)
 .comment       0x0000000000000048       0x25 libc.a(sigjmp.o)
 .comment       0x0000000000000048       0x25 libc.a(raise.o)
 .comment       0x0000000000000048       0x25 libc.a(sigaction.o)
 .comment       0x0000000000000048       0x25 libc.a(sigprocmask.o)
 .comment       0x0000000000000048       0x25 libc.a(qsort.o)
 .comment       0x0000000000000048       0x25 libc.a(setenv.o)
 .comment       0x0000000000000048       0x25 libc.a(secure-getenv.o)
 .comment       0x0000000000000048       0x25 libc.a(strtol.o)
 .comment       0x0000000000000048       0x25 libc.a(strtol_l.o)
 .comment       0x0000000000000048       0x25 libc.a(_itoa.o)
 .comment       0x0000000000000048       0x25 libc.a(itoa-digits.o)
 .comment       0x0000000000000048       0x25 libc.a(itoa-udigits.o)
 .comment       0x0000000000000048       0x25 libc.a(vfprintf.o)
 .comment       0x0000000000000048       0x25 libc.a(printf_fp.o)
 .comment       0x0000000000000048       0x25 libc.a(reg-printf.o)
 .comment       0x0000000000000048       0x25 libc.a(printf_fphex.o)
 .comment       0x0000000000000048       0x25 libc.a(reg-modifier.o)
 .comment       0x0000000000000048       0x25 libc.a(reg-type.o)
 .comment       0x0000000000000048       0x25 libc.a(fprintf.o)
 .comment       0x0000000000000048       0x25 libc.a(sscanf.o)
 .comment       0x0000000000000048       0x25 libc.a(funlockfile.o)
 .comment       0x0000000000000048       0x25 libc.a(vfwprintf.o)
 .comment       0x0000000000000048       0x25 libc.a(printf-parsemb.o)
 .comment       0x0000000000000048       0x25 libc.a(printf-parsewc.o)
 .comment       0x0000000000000048       0x25 libc.a(filedoalloc.o)
 .comment       0x0000000000000048       0x25 libc.a(iofputs.o)
 .comment       0x0000000000000048       0x25 libc.a(iofwrite.o)
 .comment       0x0000000000000048       0x25 libc.a(iogetdelim.o)
 .comment       0x0000000000000048       0x25 libc.a(iogetline.o)
 .comment       0x0000000000000048       0x25 libc.a(iopadn.o)
 .comment       0x0000000000000048       0x25 libc.a(iovsscanf.o)
 .comment       0x0000000000000048       0x25 libc.a(iofwide.o)
 .comment       0x0000000000000048       0x25 libc.a(wfiledoalloc.o)
 .comment       0x0000000000000048       0x25 libc.a(iowpadn.o)
 .comment       0x0000000000000048       0x25 libc.a(wgenops.o)
 .comment       0x0000000000000048       0x25 libc.a(strndup.o)
 .comment       0x0000000000000048       0x25 libc.a(_strerror.o)
 .comment       0x0000000000000048       0x25 libc.a(argz-ctsep.o)
 .comment       0x0000000000000048       0x25 libc.a(argz-addsep.o)
 .comment       0x0000000000000048       0x25 libc.a(wmemcpy.o)
 .comment       0x0000000000000048       0x25 libc.a(wmemset.o)
 .comment       0x0000000000000048       0x25 libc.a(wmemmove.o)
 .comment       0x0000000000000048       0x25 libc.a(btowc.o)
 .comment       0x0000000000000048       0x25 libc.a(wcrtomb.o)
 .comment       0x0000000000000048       0x25 libc.a(mbsrtowcs.o)
 .comment       0x0000000000000048       0x25 libc.a(wcsrtombs.o)
 .comment       0x0000000000000048       0x25 libc.a(wcsnlen.o)
 .comment       0x0000000000000048       0x25 libc.a(wcschrnul.o)
 .comment       0x0000000000000048       0x25 libc.a(mbsrtowcs_l.o)
 .comment       0x0000000000000048       0x25 libc.a(time.o)
 .comment       0x0000000000000048       0x25 libc.a(tzset.o)
 .comment       0x0000000000000048       0x25 libc.a(tzfile.o)
 .comment       0x0000000000000048       0x25 libc.a(opendir.o)
 .comment       0x0000000000000048       0x25 libc.a(closedir.o)
 .comment       0x0000000000000048       0x25 libc.a(readdir.o)
 .comment       0x0000000000000048       0x25 libc.a(rewinddir.o)
 .comment       0x0000000000000048       0x25 libc.a(getdents.o)
 .comment       0x0000000000000048       0x25 libc.a(fdopendir.o)
 .comment       0x0000000000000048       0x25 libc.a(fork.o)
 .comment       0x0000000000000048       0x25 libc.a(lxstat.o)
 .comment       0x0000000000000048       0x25 libc.a(fxstatat.o)
 .comment       0x0000000000000048       0x25 libc.a(openat.o)
 .comment       0x0000000000000048       0x25 libc.a(isatty.o)
 .comment       0x0000000000000048       0x25 libc.a(tcgetattr.o)
 .comment       0x0000000000000048       0x25 libc.a(brk.o)
 .comment       0x0000000000000048       0x25 libc.a(writev.o)
 .comment       0x0000000000000048       0x25 libc.a(wctrans.o)
 .comment       0x0000000000000048       0x25 libc.a(towctrans.o)
 .comment       0x0000000000000048       0x25 libc.a(readonly-area.o)
 .comment       0x0000000000000048       0x25 libc.a(dl-load.o)
 .comment       0x0000000000000048       0x25 libc.a(dl-lookup.o)
 .comment       0x0000000000000048       0x25 libc.a(dl-object.o)
 .comment       0x0000000000000048       0x25 libc.a(dl-reloc.o)
 .comment       0x0000000000000048       0x25 libc.a(dl-hwcaps.o)
 .comment       0x0000000000000048       0x25 libc.a(dl-error.o)
 .comment       0x0000000000000048       0x25 libc.a(dl-debug.o)
 .comment       0x0000000000000048       0x25 libc.a(dl-misc.o)
 .comment       0x0000000000000048       0x25 libc.a(dl-tls.o)
 .comment       0x0000000000000048       0x25 libc.a(dl-origin.o)
 .comment       0x0000000000000048       0x25 libc.a(dl-scope.o)
 .comment       0x0000000000000048       0x25 libc.a(dl-execstack.o)
 .comment       0x0000000000000048       0x25 libc.a(dl-open.o)
 .comment       0x0000000000000048       0x25 libc.a(dl-close.o)
 .comment       0x0000000000000048       0x25 libc.a(dl-cache.o)
 .comment       0x0000000000000048       0x25 libc.a(dl-profstub.o)
 .comment       0x0000000000000048       0x25 libc.a(dl-libc.o)
 .comment       0x0000000000000048       0x25 libc.a(dl-tsd.o)
 .comment       0x0000000000000048       0x25 libc.a(tlsdesc.o)
 .comment       0x0000000000000048       0x25 libc.a(C-time.o)
 .comment       0x0000000000000048       0x25 libc.a(lc-monetary.o)
 .comment       0x0000000000000048       0x25 libc.a(lc-numeric.o)
 .comment       0x0000000000000048       0x25 libc.a(s_isinf.o)
 .comment       0x0000000000000048       0x25 libc.a(s_isnan.o)
 .comment       0x0000000000000048       0x25 libc.a(s_isinfl.o)
 .comment       0x0000000000000048       0x25 libc.a(s_isnanl.o)
 .comment       0x0000000000000048       0x25 libc.a(cmp.o)
 .comment       0x0000000000000048       0x25 libc.a(divrem.o)
 .comment       0x0000000000000048       0x25 libc.a(mul.o)
 .comment       0x0000000000000048       0x25 libc.a(mul_n.o)
 .comment       0x0000000000000048       0x25 libc.a(dbl2mpn.o)
 .comment       0x0000000000000048       0x25 libc.a(ldbl2mpn.o)
 .comment       0x0000000000000048       0x25 libc.a(fpioconst.o)
 .comment       0x0000000000000048       0x25 libc.a(itowa-digits.o)
 .comment       0x0000000000000048       0x25 libc.a(vfscanf.o)
 .comment       0x0000000000000048       0x25 libc.a(errlist.o)
 .comment       0x0000000000000048       0x25 libc.a(fileno.o)
 .comment       0x0000000000000048       0x25 libc.a(fseek.o)
 .comment       0x0000000000000048       0x25 libc.a(ftello.o)
 .comment       0x0000000000000048       0x25 libc.a(iofread_u.o)
 .comment       0x0000000000000048       0x25 libc.a(sdlerror.o)
 .comment       0x0000000000000048       0x25 libc.a(sdladdr.o)
 .comment       0x0000000000000048       0x25 libc.a(sdladdr1.o)
 .comment       0x0000000000000048       0x25 libc.a(sdlinfo.o)
 .comment       0x0000000000000048       0x25 libc.a(sdlmopen.o)
 .comment       0x0000000000000048       0x25 libc.a(strerror.o)
 .comment       0x0000000000000048       0x25 libc.a(strsep.o)
 .comment       0x0000000000000048       0x25 libc.a(mbrlen.o)
 .comment       0x0000000000000048       0x25 libc.a(mbrtowc.o)
 .comment       0x0000000000000048       0x25 libc.a(offtime.o)
 .comment       0x0000000000000048       0x25 libc.a(localtime.o)
 .comment       0x0000000000000048       0x25 libc.a(mktime.o)
 .comment       0x0000000000000048       0x25 libc.a(getpid.o)
 .comment       0x0000000000000048       0x25 libc.a(dl-deps.o)
 .comment       0x0000000000000048       0x25 libc.a(dl-runtime.o)
 .comment       0x0000000000000048       0x25 libc.a(dl-init.o)
 .comment       0x0000000000000048       0x25 libc.a(dl-fini.o)
 .comment       0x0000000000000048       0x25 libc.a(dl-version.o)
 .comment       0x0000000000000048       0x25 libc.a(dl-profile.o)
 .comment       0x0000000000000048       0x25 libc.a(strtof.o)
 .comment       0x0000000000000048       0x25 libc.a(strtod.o)
 .comment       0x0000000000000048       0x25 libc.a(strtold.o)
 .comment       0x0000000000000048       0x25 libc.a(strtof_l.o)
 .comment       0x0000000000000048       0x25 libc.a(strtod_l.o)
 .comment       0x0000000000000048       0x25 libc.a(strtold_l.o)
 .comment       0x0000000000000048       0x25 libc.a(tens_in_limb.o)
 .comment       0x0000000000000048       0x25 libc.a(ioseekoff.o)
 .comment       0x0000000000000048       0x25 libc.a(sdlopen.o)
 .comment       0x0000000000000048       0x25 libc.a(sdlclose.o)
 .comment       0x0000000000000048       0x25 libc.a(sdlsym.o)
 .comment       0x0000000000000048       0x25 libc.a(sdlvsym.o)
 .comment       0x0000000000000048       0x25 libc.a(strncase_l-nonascii.o)
 .comment       0x0000000000000048       0x25 libc.a(profil.o)
 .comment       0x0000000000000048       0x25 libc.a(prof-freq.o)
 .comment       0x0000000000000048       0x25 libc.a(dl-sym.o)
 .comment       0x0000000000000048       0x25 libc.a(mpn2flt.o)
 .comment       0x0000000000000048       0x25 libc.a(mpn2dbl.o)
 .comment       0x0000000000000048       0x25 libc.a(mpn2ldbl.o)
 .comment       0x0000000000000048       0x25 libgcc_eh.a(unwind-dw2.o)
 .comment       0x0000000000000048       0x25 libgcc_eh.a(unwind-dw2-fde-dip.o)
 .comment       0x0000000000000048       0x25 libgcc_eh.a(unwind-c.o)
 .comment       0x0000000000000048       0x25 libc.a(dl-iteratephdr.o)
 .comment       0x0000000000000048       0x25 crtend.o

.debug
 *(.debug)

.line
 *(.line)

.debug_srcinfo
 *(.debug_srcinfo)

.debug_sfnames
 *(.debug_sfnames)

.debug_aranges
 *(.debug_aranges)

.debug_pubnames
 *(.debug_pubnames)

.debug_info
 *(.debug_info .gnu.linkonce.wi.*)

.debug_abbrev
 *(.debug_abbrev)

.debug_line
 *(.debug_line .debug_line.* .debug_line_end)

.debug_frame
 *(.debug_frame)

.debug_str
 *(.debug_str)

.debug_loc
 *(.debug_loc)

.debug_macinfo
 *(.debug_macinfo)

.debug_weaknames
 *(.debug_weaknames)

.debug_funcnames
 *(.debug_funcnames)

.debug_typenames
 *(.debug_typenames)

.debug_varnames
 *(.debug_varnames)

.debug_pubtypes
 *(.debug_pubtypes)

.debug_ranges
 *(.debug_ranges)

.debug_macro
 *(.debug_macro)

.gnu.attributes
 *(.gnu.attributes)

/DISCARD/
 *(.note.GNU-stack)
 *(.gnu_debuglink)
 *(.gnu.lto_*)
OUTPUT(hello.with-relocs elf64-x86-64)
